	.file	"bdf_kern.c"
	.text
.Ltext0:
	.comm	bdf_first_table_cnt,2,2
	.comm	bdf_first_encoding_table,122880,32
	.comm	bdf_index_to_second_table,122880,32
	.comm	bdf_second_table_cnt,2,2
	.comm	bdf_second_encoding_table,122880,32
	.comm	bdf_kerning_values,61440,32
	.section	.rodata
	.align 8
.LC0:
	.string	"static const uint16_t %s_%s[%u] = {\n  "
.LC1:
	.string	"%u"
.LC2:
	.string	", "
.LC3:
	.string	"\n  "
.LC4:
	.string	"};\n"
	.text
	.type	bdf_write_uint16_array, @function
bdf_write_uint16_array:
.LFB0:
	.file 1 "bdf_kern.c"
	.loc 1 36 1
	.cfi_startproc
	endbr64
	pushq	%rbp
	.cfi_def_cfa_offset 16
	.cfi_offset 6, -16
	movq	%rsp, %rbp
	.cfi_def_cfa_register 6
	subq	$64, %rsp
	movq	%rdi, -24(%rbp)
	movq	%rsi, -32(%rbp)
	movq	%rdx, -40(%rbp)
	movl	%ecx, %eax
	movq	%r8, -56(%rbp)
	movw	%ax, -44(%rbp)
	.loc 1 39 3
	movzwl	-44(%rbp), %esi
	movq	-40(%rbp), %rcx
	movq	-32(%rbp), %rdx
	movq	-24(%rbp), %rax
	movl	%esi, %r8d
	leaq	.LC0(%rip), %rsi
	movq	%rax, %rdi
	movl	$0, %eax
	call	fprintf@PLT
	.loc 1 40 10
	movw	$0, -2(%rbp)
	.loc 1 40 3
	jmp	.L2
.L4:
	.loc 1 42 24
	movzwl	-2(%rbp), %eax
	leaq	(%rax,%rax), %rdx
	movq	-56(%rbp), %rax
	addq	%rdx, %rax
	movzwl	(%rax), %eax
	.loc 1 42 5
	movzwl	%ax, %edx
	movq	-24(%rbp), %rax
	leaq	.LC1(%rip), %rsi
	movq	%rax, %rdi
	movl	$0, %eax
	call	fprintf@PLT
	.loc 1 43 11
	movzwl	-2(%rbp), %eax
	leal	1(%rax), %edx
	.loc 1 43 14
	movzwl	-44(%rbp), %eax
	.loc 1 43 8
	cmpl	%eax, %edx
	jge	.L3
	.loc 1 45 7
	movq	-24(%rbp), %rax
	movq	%rax, %rcx
	movl	$2, %edx
	movl	$1, %esi
	leaq	.LC2(%rip), %rdi
	call	fwrite@PLT
	.loc 1 46 19
	movzwl	-2(%rbp), %eax
	andl	$15, %eax
	.loc 1 46 10
	testw	%ax, %ax
	jne	.L3
	.loc 1 46 24 discriminator 1
	cmpw	$0, -2(%rbp)
	je	.L3
	.loc 1 48 2
	movq	-24(%rbp), %rax
	movq	%rax, %rcx
	movl	$3, %edx
	movl	$1, %esi
	leaq	.LC3(%rip), %rdi
	call	fwrite@PLT
.L3:
	.loc 1 40 25 discriminator 2
	movzwl	-2(%rbp), %eax
	addl	$1, %eax
	movw	%ax, -2(%rbp)
.L2:
	.loc 1 40 3 discriminator 1
	movzwl	-2(%rbp), %eax
	cmpw	-44(%rbp), %ax
	jb	.L4
	.loc 1 52 3
	movq	-24(%rbp), %rax
	movq	%rax, %rcx
	movl	$3, %edx
	movl	$1, %esi
	leaq	.LC4(%rip), %rdi
	call	fwrite@PLT
	.loc 1 53 1
	nop
	leave
	.cfi_def_cfa 7, 8
	ret
	.cfi_endproc
.LFE0:
	.size	bdf_write_uint16_array, .-bdf_write_uint16_array
	.section	.rodata
	.align 8
.LC5:
	.string	"static const uint8_t %s_%s[%u] = {\n  "
	.text
	.type	bdf_write_uint8_array, @function
bdf_write_uint8_array:
.LFB1:
	.loc 1 56 1
	.cfi_startproc
	endbr64
	pushq	%rbp
	.cfi_def_cfa_offset 16
	.cfi_offset 6, -16
	movq	%rsp, %rbp
	.cfi_def_cfa_register 6
	subq	$64, %rsp
	movq	%rdi, -24(%rbp)
	movq	%rsi, -32(%rbp)
	movq	%rdx, -40(%rbp)
	movl	%ecx, %eax
	movq	%r8, -56(%rbp)
	movw	%ax, -44(%rbp)
	.loc 1 59 3
	movzwl	-44(%rbp), %esi
	movq	-40(%rbp), %rcx
	movq	-32(%rbp), %rdx
	movq	-24(%rbp), %rax
	movl	%esi, %r8d
	leaq	.LC5(%rip), %rsi
	movq	%rax, %rdi
	movl	$0, %eax
	call	fprintf@PLT
	.loc 1 60 10
	movw	$0, -2(%rbp)
	.loc 1 60 3
	jmp	.L6
.L8:
	.loc 1 62 24
	movzwl	-2(%rbp), %edx
	movq	-56(%rbp), %rax
	addq	%rdx, %rax
	movzbl	(%rax), %eax
	.loc 1 62 5
	movzbl	%al, %edx
	movq	-24(%rbp), %rax
	leaq	.LC1(%rip), %rsi
	movq	%rax, %rdi
	movl	$0, %eax
	call	fprintf@PLT
	.loc 1 63 11
	movzwl	-2(%rbp), %eax
	leal	1(%rax), %edx
	.loc 1 63 14
	movzwl	-44(%rbp), %eax
	.loc 1 63 8
	cmpl	%eax, %edx
	jge	.L7
	.loc 1 65 7
	movq	-24(%rbp), %rax
	movq	%rax, %rcx
	movl	$2, %edx
	movl	$1, %esi
	leaq	.LC2(%rip), %rdi
	call	fwrite@PLT
	.loc 1 66 19
	movzwl	-2(%rbp), %eax
	andl	$15, %eax
	.loc 1 66 10
	testw	%ax, %ax
	jne	.L7
	.loc 1 66 24 discriminator 1
	cmpw	$0, -2(%rbp)
	je	.L7
	.loc 1 68 2
	movq	-24(%rbp), %rax
	movq	%rax, %rcx
	movl	$3, %edx
	movl	$1, %esi
	leaq	.LC3(%rip), %rdi
	call	fwrite@PLT
.L7:
	.loc 1 60 25 discriminator 2
	movzwl	-2(%rbp), %eax
	addl	$1, %eax
	movw	%ax, -2(%rbp)
.L6:
	.loc 1 60 3 discriminator 1
	movzwl	-2(%rbp), %eax
	cmpw	-44(%rbp), %ax
	jb	.L8
	.loc 1 72 3
	movq	-24(%rbp), %rax
	movq	%rax, %rcx
	movl	$3, %edx
	movl	$1, %esi
	leaq	.LC4(%rip), %rdi
	call	fwrite@PLT
	.loc 1 73 1
	nop
	leave
	.cfi_def_cfa 7, 8
	ret
	.cfi_endproc
.LFE1:
	.size	bdf_write_uint8_array, .-bdf_write_uint8_array
	.section	.rodata
.LC6:
	.string	"w"
.LC7:
	.string	"/* %s, Size: %u Bytes */\n"
.LC8:
	.string	"first_encoding_table"
.LC9:
	.string	"index_to_second_table"
.LC10:
	.string	"second_encoding_table"
.LC11:
	.string	"kerning_values"
.LC12:
	.string	"u8g2_kerning_t %s_k = {\n"
.LC13:
	.string	"  %u, %u,\n"
.LC14:
	.string	"  %s_%s,\n"
.LC15:
	.string	"  %s_%s};\n\n"
	.text
	.globl	bdf_write_kerning_file
	.type	bdf_write_kerning_file, @function
bdf_write_kerning_file:
.LFB2:
	.loc 1 77 1
	.cfi_startproc
	endbr64
	pushq	%rbp
	.cfi_def_cfa_offset 16
	.cfi_offset 6, -16
	movq	%rsp, %rbp
	.cfi_def_cfa_register 6
	subq	$32, %rsp
	movq	%rdi, -24(%rbp)
	movq	%rsi, -32(%rbp)
	.loc 1 79 8
	movq	-24(%rbp), %rax
	leaq	.LC6(%rip), %rsi
	movq	%rax, %rdi
	call	fopen@PLT
	movq	%rax, -8(%rbp)
	.loc 1 81 70
	movzwl	bdf_first_table_cnt(%rip), %eax
	movzwl	%ax, %eax
	leal	0(,%rax,4), %ecx
	.loc 1 81 95
	movzwl	bdf_second_table_cnt(%rip), %eax
	movzwl	%ax, %edx
	movl	%edx, %eax
	addl	%eax, %eax
	addl	%edx, %eax
	.loc 1 81 73
	addl	%ecx, %eax
	.loc 1 81 3
	leal	12(%rax), %ecx
	movq	-32(%rbp), %rdx
	movq	-8(%rbp), %rax
	leaq	.LC7(%rip), %rsi
	movq	%rax, %rdi
	movl	$0, %eax
	call	fprintf@PLT
	.loc 1 82 3
	movzwl	bdf_first_table_cnt(%rip), %eax
	movzwl	%ax, %edx
	movq	-32(%rbp), %rsi
	movq	-8(%rbp), %rax
	leaq	bdf_first_encoding_table(%rip), %r8
	movl	%edx, %ecx
	leaq	.LC8(%rip), %rdx
	movq	%rax, %rdi
	call	bdf_write_uint16_array
	.loc 1 83 3
	movzwl	bdf_first_table_cnt(%rip), %eax
	movzwl	%ax, %edx
	movq	-32(%rbp), %rsi
	movq	-8(%rbp), %rax
	leaq	bdf_index_to_second_table(%rip), %r8
	movl	%edx, %ecx
	leaq	.LC9(%rip), %rdx
	movq	%rax, %rdi
	call	bdf_write_uint16_array
	.loc 1 84 3
	movzwl	bdf_second_table_cnt(%rip), %eax
	movzwl	%ax, %edx
	movq	-32(%rbp), %rsi
	movq	-8(%rbp), %rax
	leaq	bdf_second_encoding_table(%rip), %r8
	movl	%edx, %ecx
	leaq	.LC10(%rip), %rdx
	movq	%rax, %rdi
	call	bdf_write_uint16_array
	.loc 1 85 3
	movzwl	bdf_second_table_cnt(%rip), %eax
	movzwl	%ax, %edx
	movq	-32(%rbp), %rsi
	movq	-8(%rbp), %rax
	leaq	bdf_kerning_values(%rip), %r8
	movl	%edx, %ecx
	leaq	.LC11(%rip), %rdx
	movq	%rax, %rdi
	call	bdf_write_uint8_array
	.loc 1 88 3
	movq	-32(%rbp), %rdx
	movq	-8(%rbp), %rax
	leaq	.LC12(%rip), %rsi
	movq	%rax, %rdi
	movl	$0, %eax
	call	fprintf@PLT
	.loc 1 89 3
	movzwl	bdf_second_table_cnt(%rip), %eax
	movzwl	%ax, %ecx
	movzwl	bdf_first_table_cnt(%rip), %eax
	movzwl	%ax, %edx
	movq	-8(%rbp), %rax
	leaq	.LC13(%rip), %rsi
	movq	%rax, %rdi
	movl	$0, %eax
	call	fprintf@PLT
	.loc 1 90 3
	movq	-32(%rbp), %rdx
	movq	-8(%rbp), %rax
	leaq	.LC8(%rip), %rcx
	leaq	.LC14(%rip), %rsi
	movq	%rax, %rdi
	movl	$0, %eax
	call	fprintf@PLT
	.loc 1 91 3
	movq	-32(%rbp), %rdx
	movq	-8(%rbp), %rax
	leaq	.LC9(%rip), %rcx
	leaq	.LC14(%rip), %rsi
	movq	%rax, %rdi
	movl	$0, %eax
	call	fprintf@PLT
	.loc 1 92 3
	movq	-32(%rbp), %rdx
	movq	-8(%rbp), %rax
	leaq	.LC10(%rip), %rcx
	leaq	.LC14(%rip), %rsi
	movq	%rax, %rdi
	movl	$0, %eax
	call	fprintf@PLT
	.loc 1 93 3
	movq	-32(%rbp), %rdx
	movq	-8(%rbp), %rax
	leaq	.LC11(%rip), %rcx
	leaq	.LC15(%rip), %rsi
	movq	%rax, %rdi
	movl	$0, %eax
	call	fprintf@PLT
	.loc 1 94 3
	movq	-8(%rbp), %rax
	movq	%rax, %rdi
	call	fclose@PLT
	.loc 1 95 1
	nop
	leave
	.cfi_def_cfa 7, 8
	ret
	.cfi_endproc
.LFE2:
	.size	bdf_write_kerning_file, .-bdf_write_kerning_file
	.type	bdf_is_glyph_overlap, @function
bdf_is_glyph_overlap:
.LFB3:
	.loc 1 105 1
	.cfi_startproc
	endbr64
	pushq	%rbp
	.cfi_def_cfa_offset 16
	.cfi_offset 6, -16
	movq	%rsp, %rbp
	.cfi_def_cfa_register 6
	subq	$48, %rsp
	movq	%rdi, -24(%rbp)
	movl	%edx, %eax
	movl	%ecx, %edx
	movl	%r8d, -40(%rbp)
	movl	%esi, %ecx
	movw	%cx, -28(%rbp)
	movw	%ax, -32(%rbp)
	movl	%edx, %eax
	movb	%al, -36(%rbp)
	.loc 1 107 3
	call	tga_clear@PLT
	.loc 1 109 5
	movl	$8, -8(%rbp)
	.loc 1 110 7
	call	tga_get_char_height@PLT
	.loc 1 110 5
	movl	%eax, -4(%rbp)
	.loc 1 111 8
	movzwl	-28(%rbp), %edx
	movl	-4(%rbp), %esi
	movl	-8(%rbp), %eax
	movl	$0, %ecx
	movl	%eax, %edi
	call	tga_draw_glyph@PLT
	.loc 1 111 5
	addl	%eax, -8(%rbp)
	.loc 1 112 5
	movzbl	-36(%rbp), %eax
	subl	%eax, -8(%rbp)
	.loc 1 113 3
	call	tga_clear_pixel_intersection@PLT
	.loc 1 114 8
	movzwl	-32(%rbp), %edx
	movl	-4(%rbp), %esi
	movl	-8(%rbp), %eax
	movl	$0, %ecx
	movl	%eax, %edi
	call	tga_draw_glyph@PLT
	.loc 1 114 5
	addl	%eax, -8(%rbp)
	.loc 1 123 10
	call	tga_is_pixel_intersection@PLT
	.loc 1 124 1
	leave
	.cfi_def_cfa 7, 8
	ret
	.cfi_endproc
.LFE3:
	.size	bdf_is_glyph_overlap, .-bdf_is_glyph_overlap
	.globl	bdf_calculate_kerning
	.type	bdf_calculate_kerning, @function
bdf_calculate_kerning:
.LFB4:
	.loc 1 127 1
	.cfi_startproc
	endbr64
	pushq	%rbp
	.cfi_def_cfa_offset 16
	.cfi_offset 6, -16
	movq	%rsp, %rbp
	.cfi_def_cfa_register 6
	pushq	%rbx
	subq	$56, %rsp
	.cfi_offset 3, -24
	movq	%rdi, -40(%rbp)
	movl	%edx, %eax
	movl	%ecx, %edx
	movl	%esi, %ecx
	movw	%cx, -44(%rbp)
	movw	%ax, -48(%rbp)
	movl	%edx, %eax
	movb	%al, -52(%rbp)
	.loc 1 133 3
	movq	-40(%rbp), %rax
	movq	%rax, %rdi
	call	tga_set_font@PLT
	.loc 1 134 43
	call	tga_get_char_height@PLT
	.loc 1 134 64
	addl	$8, %eax
	.loc 1 134 3
	addl	%eax, %eax
	movzwl	%ax, %ebx
	.loc 1 134 13
	call	tga_get_char_width@PLT
	.loc 1 134 33
	addl	$16, %eax
	.loc 1 134 3
	movl	%eax, %edx
	movl	%edx, %eax
	addl	%eax, %eax
	addl	%edx, %eax
	movzwl	%ax, %eax
	movl	%ebx, %esi
	movl	%eax, %edi
	call	tga_init@PLT
	.loc 1 136 38
	call	tga_get_char_width@PLT
	.loc 1 136 28
	movl	%eax, %edx
	.loc 1 136 59
	movzbl	-52(%rbp), %eax
	.loc 1 136 58
	imull	%edx, %eax
	.loc 1 136 109
	movl	%eax, %eax
	imulq	$1374389535, %rax, %rax
	shrq	$32, %rax
	shrl	$5, %eax
	.loc 1 136 25
	movb	%al, -18(%rbp)
	.loc 1 137 17
	call	tga_get_char_width@PLT
	.loc 1 137 15
	movb	%al, -17(%rbp)
	.loc 1 138 16
	movb	$0, -19(%rbp)
	.loc 1 138 3
	jmp	.L13
.L16:
	.loc 1 140 10
	movzbl	-19(%rbp), %ecx
	movzwl	-48(%rbp), %edx
	movzwl	-44(%rbp), %esi
	movq	-40(%rbp), %rax
	movl	$0, %r8d
	movq	%rax, %rdi
	call	bdf_is_glyph_overlap
	.loc 1 140 8
	testl	%eax, %eax
	jne	.L22
	.loc 1 138 51 discriminator 2
	movzbl	-19(%rbp), %eax
	addl	$1, %eax
	movb	%al, -19(%rbp)
.L13:
	.loc 1 138 3 discriminator 1
	movzbl	-19(%rbp), %eax
	cmpb	-17(%rbp), %al
	jb	.L16
	jmp	.L15
.L22:
	.loc 1 141 7
	nop
.L15:
	.loc 1 143 6
	movzbl	-19(%rbp), %eax
	cmpb	-17(%rbp), %al
	jb	.L17
	.loc 1 144 13
	movb	$0, -19(%rbp)
.L17:
	.loc 1 145 6
	movzbl	-19(%rbp), %eax
	cmpb	-18(%rbp), %al
	jnb	.L18
	.loc 1 146 13
	movb	$0, -19(%rbp)
	jmp	.L19
.L18:
	.loc 1 148 13
	movzbl	-18(%rbp), %eax
	subb	%al, -19(%rbp)
.L19:
	.loc 1 150 6
	cmpb	$0, -19(%rbp)
	je	.L20
	.loc 1 152 5
	movzbl	-19(%rbp), %ecx
	movzwl	-48(%rbp), %edx
	movzwl	-44(%rbp), %esi
	movq	-40(%rbp), %rax
	movl	$1, %r8d
	movq	%rax, %rdi
	call	bdf_is_glyph_overlap
.L20:
	.loc 1 156 10
	movzbl	-19(%rbp), %eax
	.loc 1 157 1
	addq	$56, %rsp
	popq	%rbx
	popq	%rbp
	.cfi_def_cfa 7, 8
	ret
	.cfi_endproc
.LFE4:
	.size	bdf_calculate_kerning, .-bdf_calculate_kerning
	.section	.rodata
	.align 8
.LC16:
	.string	"Kerning calculation aborted: bdf_first_table_cnt > BDF_KERNING_MAX\n"
	.align 8
.LC17:
	.string	"Kerning calculation aborted: bdf_second_table_cnt > BDF_KERNING_MAX\n"
	.text
	.globl	bdf_calculate_all_kerning
	.type	bdf_calculate_all_kerning, @function
bdf_calculate_all_kerning:
.LFB5:
	.loc 1 160 1
	.cfi_startproc
	endbr64
	pushq	%rbp
	.cfi_def_cfa_offset 16
	.cfi_offset 6, -16
	movq	%rsp, %rbp
	.cfi_def_cfa_register 6
	subq	$64, %rsp
	movq	%rdi, -40(%rbp)
	movq	%rsi, -48(%rbp)
	movq	%rdx, -56(%rbp)
	movl	%ecx, %eax
	movb	%al, -60(%rbp)
	.loc 1 168 23
	movw	$0, bdf_first_table_cnt(%rip)
	.loc 1 169 24
	movw	$0, bdf_second_table_cnt(%rip)
	.loc 1 171 13
	movl	$0, -28(%rbp)
	.loc 1 171 3
	jmp	.L24
.L32:
	.loc 1 173 29
	movl	$0, -20(%rbp)
	.loc 1 174 18
	movq	-40(%rbp), %rax
	movq	8(%rax), %rax
	.loc 1 174 30
	movl	-28(%rbp), %edx
	movslq	%edx, %rdx
	salq	$3, %rdx
	addq	%rdx, %rax
	.loc 1 174 14
	movq	(%rax), %rax
	movq	%rax, -16(%rbp)
	.loc 1 175 18
	movq	-16(%rbp), %rax
	movq	104(%rax), %rax
	.loc 1 175 8
	testq	%rax, %rax
	je	.L25
	.loc 1 175 51 discriminator 1
	movq	-16(%rbp), %rax
	movl	80(%rax), %eax
	.loc 1 175 40 discriminator 1
	testl	%eax, %eax
	jne	.L25
	.loc 1 177 18
	movl	$0, -24(%rbp)
	.loc 1 177 7
	jmp	.L26
.L31:
	.loc 1 179 23
	movq	-40(%rbp), %rax
	movq	8(%rax), %rax
	.loc 1 179 35
	movl	-24(%rbp), %edx
	movslq	%edx, %rdx
	salq	$3, %rdx
	addq	%rdx, %rax
	.loc 1 179 19
	movq	(%rax), %rax
	movq	%rax, -8(%rbp)
	.loc 1 180 23
	movq	-8(%rbp), %rax
	movq	104(%rax), %rax
	.loc 1 180 12
	testq	%rax, %rax
	je	.L27
	.loc 1 180 57 discriminator 1
	movq	-8(%rbp), %rax
	movl	80(%rax), %eax
	.loc 1 180 45 discriminator 1
	testl	%eax, %eax
	jne	.L27
	.loc 1 182 21
	movzbl	-60(%rbp), %ecx
	.loc 1 182 89
	movq	-8(%rbp), %rax
	movq	8(%rax), %rax
	.loc 1 182 21
	movzwl	%ax, %edx
	.loc 1 182 68
	movq	-16(%rbp), %rax
	movq	8(%rax), %rax
	.loc 1 182 21
	movzwl	%ax, %esi
	movq	-40(%rbp), %rax
	movq	1288(%rax), %rax
	movq	%rax, %rdi
	call	bdf_calculate_kerning
	.loc 1 182 19
	movb	%al, -29(%rbp)
	.loc 1 183 7
	cmpb	$1, -29(%rbp)
	jbe	.L27
	.loc 1 185 9
	cmpl	$0, -20(%rbp)
	jne	.L28
	.loc 1 187 64
	movq	-16(%rbp), %rax
	movq	8(%rax), %rdx
	.loc 1 187 32
	movzwl	bdf_first_table_cnt(%rip), %eax
	movzwl	%ax, %eax
	.loc 1 187 54
	movl	%edx, %ecx
	cltq
	leaq	(%rax,%rax), %rdx
	leaq	bdf_first_encoding_table(%rip), %rax
	movw	%cx, (%rdx,%rax)
	.loc 1 188 33
	movzwl	bdf_first_table_cnt(%rip), %eax
	movzwl	%ax, %edx
	.loc 1 188 56
	movzwl	bdf_second_table_cnt(%rip), %eax
	movslq	%edx, %rdx
	leaq	(%rdx,%rdx), %rcx
	leaq	bdf_index_to_second_table(%rip), %rdx
	movw	%ax, (%rcx,%rdx)
	.loc 1 189 27
	movzwl	bdf_first_table_cnt(%rip), %eax
	addl	$1, %eax
	movw	%ax, bdf_first_table_cnt(%rip)
	.loc 1 190 32
	movzwl	bdf_first_table_cnt(%rip), %eax
	.loc 1 190 11
	cmpw	$-4096, %ax
	jbe	.L29
	.loc 1 192 9
	movq	stderr(%rip), %rax
	movq	%rax, %rcx
	movl	$67, %edx
	movl	$1, %esi
	leaq	.LC16(%rip), %rdi
	call	fwrite@PLT
	.loc 1 193 9
	jmp	.L23
.L29:
	.loc 1 195 32
	movl	$1, -20(%rbp)
.L28:
	.loc 1 197 65
	movq	-8(%rbp), %rax
	movq	8(%rax), %rdx
	.loc 1 197 31
	movzwl	bdf_second_table_cnt(%rip), %eax
	movzwl	%ax, %eax
	.loc 1 197 54
	movl	%edx, %ecx
	cltq
	leaq	(%rax,%rax), %rdx
	leaq	bdf_second_encoding_table(%rip), %rax
	movw	%cx, (%rdx,%rax)
	.loc 1 198 24
	movzwl	bdf_second_table_cnt(%rip), %eax
	movzwl	%ax, %eax
	.loc 1 198 47
	cltq
	leaq	bdf_kerning_values(%rip), %rcx
	movzbl	-29(%rbp), %edx
	movb	%dl, (%rax,%rcx)
	.loc 1 199 26
	movzwl	bdf_second_table_cnt(%rip), %eax
	addl	$1, %eax
	movw	%ax, bdf_second_table_cnt(%rip)
	.loc 1 200 31
	movzwl	bdf_second_table_cnt(%rip), %eax
	.loc 1 200 9
	cmpw	$-4096, %ax
	jbe	.L27
	.loc 1 202 9
	movq	stderr(%rip), %rax
	movq	%rax, %rcx
	movl	$68, %edx
	movl	$1, %esi
	leaq	.LC17(%rip), %rdi
	call	fwrite@PLT
	.loc 1 203 9
	jmp	.L23
.L27:
	.loc 1 177 53 discriminator 2
	addl	$1, -24(%rbp)
.L26:
	.loc 1 177 34 discriminator 1
	movq	-40(%rbp), %rax
	movl	16(%rax), %eax
	.loc 1 177 7 discriminator 1
	cmpl	%eax, -24(%rbp)
	jl	.L31
.L25:
	.loc 1 171 46 discriminator 2
	addl	$1, -28(%rbp)
.L24:
	.loc 1 171 28 discriminator 1
	movq	-40(%rbp), %rax
	movl	16(%rax), %eax
	.loc 1 171 3 discriminator 1
	cmpl	%eax, -28(%rbp)
	jl	.L32
	.loc 1 211 27
	movzwl	bdf_first_table_cnt(%rip), %eax
	movzwl	%ax, %eax
	.loc 1 211 49
	cltq
	leaq	(%rax,%rax), %rdx
	leaq	bdf_first_encoding_table(%rip), %rax
	movw	$-1, (%rdx,%rax)
	.loc 1 212 28
	movzwl	bdf_first_table_cnt(%rip), %eax
	movzwl	%ax, %edx
	.loc 1 212 51
	movzwl	bdf_second_table_cnt(%rip), %eax
	movslq	%edx, %rdx
	leaq	(%rdx,%rdx), %rcx
	leaq	bdf_index_to_second_table(%rip), %rdx
	movw	%ax, (%rcx,%rdx)
	.loc 1 213 22
	movzwl	bdf_first_table_cnt(%rip), %eax
	addl	$1, %eax
	movw	%ax, bdf_first_table_cnt(%rip)
	.loc 1 215 3
	movq	-56(%rbp), %rdx
	movq	-48(%rbp), %rax
	movq	%rdx, %rsi
	movq	%rax, %rdi
	call	bdf_write_kerning_file
.L23:
	.loc 1 216 1
	leave
	.cfi_def_cfa 7, 8
	ret
	.cfi_endproc
.LFE5:
	.size	bdf_calculate_all_kerning, .-bdf_calculate_all_kerning
.Letext0:
	.file 2 "/usr/lib/gcc/x86_64-linux-gnu/9/include/stddef.h"
	.file 3 "/usr/include/x86_64-linux-gnu/bits/types.h"
	.file 4 "/usr/include/x86_64-linux-gnu/bits/types/struct_FILE.h"
	.file 5 "/usr/include/x86_64-linux-gnu/bits/types/FILE.h"
	.file 6 "/usr/include/stdio.h"
	.file 7 "/usr/include/x86_64-linux-gnu/bits/sys_errlist.h"
	.file 8 "/usr/include/x86_64-linux-gnu/bits/stdint-uintn.h"
	.file 9 "bdf_glyph.h"
	.file 10 "bdf_font.h"
	.section	.note.GNU-stack,"",@progbits
	.section	.note.gnu.property,"a"
	.align 8
	.long	 1f - 0f
	.long	 4f - 1f
	.long	 5
0:
	.string	 "GNU"
1:
	.align 8
	.long	 0xc0000002
	.long	 3f - 2f
2:
	.long	 0x3
3:
	.align 8
4:
