	.file	"bdf_rle.c"
	.text
.Ltext0:
	.type	bg_err, @function
bg_err:
.LFB6:
	.file 1 "bdf_rle.c"
	.loc 1 276 1
	.cfi_startproc
	endbr64
	pushq	%rbp
	.cfi_def_cfa_offset 16
	.cfi_offset 6, -16
	movq	%rsp, %rbp
	.cfi_def_cfa_register 6
	subq	$16, %rsp
	movq	%rdi, -8(%rbp)
	.loc 1 277 3
	movq	-8(%rbp), %rax
	movq	%rax, %rdi
	call	puts@PLT
	.loc 1 278 1
	nop
	leave
	.cfi_def_cfa 7, 8
	ret
	.cfi_endproc
.LFE6:
	.size	bg_err, .-bg_err
	.type	bg_init_rle, @function
bg_init_rle:
.LFB7:
	.loc 1 281 1
	.cfi_startproc
	endbr64
	pushq	%rbp
	.cfi_def_cfa_offset 16
	.cfi_offset 6, -16
	movq	%rsp, %rbp
	.cfi_def_cfa_register 6
	subq	$16, %rsp
	movq	%rdi, -8(%rbp)
	movl	%esi, -12(%rbp)
	movl	%edx, -16(%rbp)
	.loc 1 282 18
	movq	-8(%rbp), %rax
	movl	$0, 136(%rax)
	.loc 1 283 20
	movq	-8(%rbp), %rax
	movl	$1, 132(%rax)
	.loc 1 284 22
	movq	-8(%rbp), %rax
	movl	-12(%rbp), %edx
	movl	%edx, 124(%rax)
	.loc 1 285 22
	movq	-8(%rbp), %rax
	movl	-16(%rbp), %edx
	movl	%edx, 128(%rax)
	.loc 1 286 18
	movq	-8(%rbp), %rax
	movl	$0, 140(%rax)
	.loc 1 287 18
	movq	-8(%rbp), %rax
	movl	$1, 144(%rax)
	.loc 1 288 3
	movq	-8(%rbp), %rax
	movq	%rax, %rdi
	call	bg_ClearTargetData@PLT
	.loc 1 289 1
	nop
	leave
	.cfi_def_cfa 7, 8
	ret
	.cfi_endproc
.LFE7:
	.size	bg_init_rle, .-bg_init_rle
	.section	.rodata
.LC0:
	.string	"error in bg_01_rle 1 0"
.LC1:
	.string	"error in bg_01_rle 1 a"
.LC2:
	.string	"error in bg_01_rle 1 b"
	.text
	.type	bg_01_rle, @function
bg_01_rle:
.LFB8:
	.loc 1 292 1
	.cfi_startproc
	endbr64
	pushq	%rbp
	.cfi_def_cfa_offset 16
	.cfi_offset 6, -16
	movq	%rsp, %rbp
	.cfi_def_cfa_register 6
	subq	$16, %rsp
	movq	%rdi, -8(%rbp)
	movl	%esi, -12(%rbp)
	movl	%edx, -16(%rbp)
	.loc 1 293 10
	movq	-8(%rbp), %rax
	movl	132(%rax), %eax
	.loc 1 293 6
	testl	%eax, %eax
	jne	.L4
	.loc 1 293 35 discriminator 1
	movq	-8(%rbp), %rax
	movl	140(%rax), %eax
	.loc 1 293 30 discriminator 1
	cmpl	%eax, -12(%rbp)
	jne	.L4
	.loc 1 293 58 discriminator 2
	movq	-8(%rbp), %rax
	movl	144(%rax), %eax
	.loc 1 293 53 discriminator 2
	cmpl	%eax, -16(%rbp)
	jne	.L4
	.loc 1 295 7
	movq	-8(%rbp), %rax
	movl	136(%rax), %eax
	.loc 1 295 19
	leal	1(%rax), %edx
	movq	-8(%rbp), %rax
	movl	%edx, 136(%rax)
	.loc 1 296 10
	movq	-8(%rbp), %rax
	movl	$1, %edx
	movl	$1, %esi
	movq	%rax, %rdi
	call	bg_AddTargetBits@PLT
	.loc 1 296 8
	testl	%eax, %eax
	jne	.L7
	.loc 1 297 14
	leaq	.LC0(%rip), %rdi
	call	bg_err
	.loc 1 297 46
	movl	$0, %eax
	jmp	.L6
.L4:
	.loc 1 301 12
	movq	-8(%rbp), %rax
	movl	132(%rax), %eax
	.loc 1 301 8
	testl	%eax, %eax
	jne	.L8
	.loc 1 303 12
	movq	-8(%rbp), %rax
	movl	$0, %edx
	movl	$1, %esi
	movq	%rax, %rdi
	call	bg_AddTargetBits@PLT
	.loc 1 303 10
	testl	%eax, %eax
	jne	.L9
	.loc 1 304 9
	leaq	.LC0(%rip), %rdi
	call	bg_err
	.loc 1 304 41
	movl	$0, %eax
	jmp	.L6
.L9:
	.loc 1 305 9
	movq	-8(%rbp), %rax
	movl	136(%rax), %eax
	.loc 1 305 21
	leal	1(%rax), %edx
	movq	-8(%rbp), %rax
	movl	%edx, 136(%rax)
.L8:
	.loc 1 307 10
	movq	-8(%rbp), %rax
	movl	124(%rax), %ecx
	movl	-12(%rbp), %edx
	movq	-8(%rbp), %rax
	movl	%ecx, %esi
	movq	%rax, %rdi
	call	bg_AddTargetBits@PLT
	.loc 1 307 8
	testl	%eax, %eax
	jne	.L10
	.loc 1 308 14
	leaq	.LC1(%rip), %rdi
	call	bg_err
	.loc 1 308 46
	movl	$0, %eax
	jmp	.L6
.L10:
	.loc 1 309 10
	movq	-8(%rbp), %rax
	movl	128(%rax), %ecx
	movl	-16(%rbp), %edx
	movq	-8(%rbp), %rax
	movl	%ecx, %esi
	movq	%rax, %rdi
	call	bg_AddTargetBits@PLT
	.loc 1 309 8
	testl	%eax, %eax
	jne	.L11
	.loc 1 310 14
	leaq	.LC2(%rip), %rdi
	call	bg_err
	.loc 1 310 46
	movl	$0, %eax
	jmp	.L6
.L11:
	.loc 1 321 22
	movq	-8(%rbp), %rax
	movl	$0, 132(%rax)
	.loc 1 322 20
	movq	-8(%rbp), %rax
	movl	136(%rax), %edx
	.loc 1 322 24
	movq	-8(%rbp), %rax
	movl	124(%rax), %eax
	.loc 1 322 20
	addl	%eax, %edx
	movq	-8(%rbp), %rax
	movl	%edx, 136(%rax)
	.loc 1 323 20
	movq	-8(%rbp), %rax
	movl	136(%rax), %edx
	.loc 1 323 24
	movq	-8(%rbp), %rax
	movl	128(%rax), %eax
	.loc 1 323 20
	addl	%eax, %edx
	movq	-8(%rbp), %rax
	movl	%edx, 136(%rax)
	.loc 1 324 20
	movq	-8(%rbp), %rax
	movl	-12(%rbp), %edx
	movl	%edx, 140(%rax)
	.loc 1 325 20
	movq	-8(%rbp), %rax
	movl	-16(%rbp), %edx
	movl	%edx, 144(%rax)
.L7:
	.loc 1 327 10
	movl	$1, %eax
.L6:
	.loc 1 328 1
	leave
	.cfi_def_cfa 7, 8
	ret
	.cfi_endproc
.LFE8:
	.size	bg_01_rle, .-bg_01_rle
	.type	bg_prepare_01_rle, @function
bg_prepare_01_rle:
.LFB9:
	.loc 1 340 1
	.cfi_startproc
	endbr64
	pushq	%rbp
	.cfi_def_cfa_offset 16
	.cfi_offset 6, -16
	movq	%rsp, %rbp
	.cfi_def_cfa_register 6
	subq	$16, %rsp
	movq	%rdi, -8(%rbp)
	movl	%esi, -12(%rbp)
	movl	%edx, -16(%rbp)
	.loc 1 342 8
	jmp	.L13
.L16:
	.loc 1 344 30
	movq	-8(%rbp), %rax
	movl	124(%rax), %eax
	.loc 1 344 26
	movl	$1, %edx
	movl	%eax, %ecx
	sall	%cl, %edx
	movl	%edx, %eax
	.loc 1 344 48
	subl	$1, %eax
	.loc 1 344 10
	movl	%eax, %ecx
	movq	-8(%rbp), %rax
	movl	$0, %edx
	movl	%ecx, %esi
	movq	%rax, %rdi
	call	bg_01_rle
	.loc 1 344 8
	testl	%eax, %eax
	jne	.L14
	.loc 1 345 14
	movl	$0, %eax
	jmp	.L15
.L14:
	.loc 1 346 16
	movq	-8(%rbp), %rax
	movl	124(%rax), %eax
	.loc 1 346 12
	movl	$1, %edx
	movl	%eax, %ecx
	sall	%cl, %edx
	movl	%edx, %eax
	.loc 1 346 7
	movl	%eax, %edx
	movl	-12(%rbp), %eax
	subl	%edx, %eax
	addl	$1, %eax
	movl	%eax, -12(%rbp)
.L13:
	.loc 1 342 21
	movq	-8(%rbp), %rax
	movl	124(%rax), %eax
	.loc 1 342 17
	movl	$1, %edx
	movl	%eax, %ecx
	sall	%cl, %edx
	movl	%edx, %eax
	.loc 1 342 39
	subl	$1, %eax
	.loc 1 342 8
	cmpl	%eax, -12(%rbp)
	jnb	.L16
	.loc 1 348 8
	jmp	.L17
.L19:
	.loc 1 350 33
	movq	-8(%rbp), %rax
	movl	128(%rax), %eax
	.loc 1 350 29
	movl	$1, %edx
	movl	%eax, %ecx
	sall	%cl, %edx
	movl	%edx, %eax
	.loc 1 350 51
	subl	$1, %eax
	.loc 1 350 10
	movl	%eax, %edx
	movl	-12(%rbp), %ecx
	movq	-8(%rbp), %rax
	movl	%ecx, %esi
	movq	%rax, %rdi
	call	bg_01_rle
	.loc 1 350 8
	testl	%eax, %eax
	jne	.L18
	.loc 1 351 14
	movl	$0, %eax
	jmp	.L15
.L18:
	.loc 1 352 7
	movl	$0, -12(%rbp)
	.loc 1 353 16
	movq	-8(%rbp), %rax
	movl	128(%rax), %eax
	.loc 1 353 12
	movl	$1, %edx
	movl	%eax, %ecx
	sall	%cl, %edx
	movl	%edx, %eax
	.loc 1 353 7
	movl	%eax, %edx
	movl	-16(%rbp), %eax
	subl	%edx, %eax
	addl	$1, %eax
	movl	%eax, -16(%rbp)
.L17:
	.loc 1 348 21
	movq	-8(%rbp), %rax
	movl	128(%rax), %eax
	.loc 1 348 17
	movl	$1, %edx
	movl	%eax, %ecx
	sall	%cl, %edx
	movl	%edx, %eax
	.loc 1 348 39
	subl	$1, %eax
	.loc 1 348 8
	cmpl	%eax, -16(%rbp)
	jnb	.L19
	.loc 1 355 6
	cmpl	$0, -12(%rbp)
	jne	.L20
	.loc 1 355 15 discriminator 1
	cmpl	$0, -16(%rbp)
	je	.L21
.L20:
	.loc 1 356 10
	movl	-16(%rbp), %edx
	movl	-12(%rbp), %ecx
	movq	-8(%rbp), %rax
	movl	%ecx, %esi
	movq	%rax, %rdi
	call	bg_01_rle
	.loc 1 356 8
	testl	%eax, %eax
	jne	.L21
	.loc 1 357 14
	movl	$0, %eax
	jmp	.L15
.L21:
	.loc 1 358 10
	movl	$1, %eax
.L15:
	.loc 1 359 1
	leave
	.cfi_def_cfa 7, 8
	ret
	.cfi_endproc
.LFE9:
	.size	bg_prepare_01_rle, .-bg_prepare_01_rle
	.section	.rodata
.LC3:
	.string	"error in bg_rle_compress"
.LC4:
	.string	"bdf_rle.c"
.LC5:
	.string	"bd_is_one == 0"
	.text
	.globl	bg_rle_compress
	.type	bg_rle_compress, @function
bg_rle_compress:
.LFB10:
	.loc 1 363 1
	.cfi_startproc
	endbr64
	pushq	%rbp
	.cfi_def_cfa_offset 16
	.cfi_offset 6, -16
	movq	%rsp, %rbp
	.cfi_def_cfa_register 6
	subq	$64, %rsp
	movq	%rdi, -40(%rbp)
	movq	%rsi, -48(%rbp)
	movl	%edx, -52(%rbp)
	movl	%ecx, -56(%rbp)
	movl	%r8d, -60(%rbp)
	.loc 1 374 6
	cmpq	$0, -48(%rbp)
	jne	.L23
	.loc 1 375 9
	movq	-40(%rbp), %rax
	addq	$40, %rax
	movq	%rax, -48(%rbp)
.L23:
	.loc 1 377 3
	movl	-56(%rbp), %edx
	movl	-52(%rbp), %ecx
	movq	-40(%rbp), %rax
	movl	%ecx, %esi
	movq	%rax, %rdi
	call	bg_init_rle
	.loc 1 382 10
	movq	-40(%rbp), %rax
	movq	16(%rax), %rax
	.loc 1 382 6
	cmpq	$255, %rax
	jg	.L24
	.loc 1 384 33
	movq	-40(%rbp), %rax
	movq	16(%rax), %rax
	.loc 1 384 10
	movzbl	%al, %edx
	movq	-40(%rbp), %rax
	movl	%edx, %esi
	movq	%rax, %rdi
	call	bg_AddTargetData@PLT
	.loc 1 384 8
	testl	%eax, %eax
	jns	.L25
	.loc 1 385 14
	leaq	.LC3(%rip), %rdi
	call	bg_err
	.loc 1 385 48
	movl	$0, %eax
	jmp	.L26
.L24:
	.loc 1 389 33
	movq	-40(%rbp), %rax
	movq	16(%rax), %rax
	.loc 1 389 42
	sarq	$8, %rax
	.loc 1 389 10
	movzbl	%al, %edx
	movq	-40(%rbp), %rax
	movl	%edx, %esi
	movq	%rax, %rdi
	call	bg_AddTargetData@PLT
	.loc 1 389 8
	testl	%eax, %eax
	jns	.L27
	.loc 1 390 14
	leaq	.LC3(%rip), %rdi
	call	bg_err
	.loc 1 390 48
	movl	$0, %eax
	jmp	.L26
.L27:
	.loc 1 391 33
	movq	-40(%rbp), %rax
	movq	16(%rax), %rax
	.loc 1 391 10
	movzbl	%al, %edx
	movq	-40(%rbp), %rax
	movl	%edx, %esi
	movq	%rax, %rdi
	call	bg_AddTargetData@PLT
	.loc 1 391 8
	testl	%eax, %eax
	jns	.L25
	.loc 1 392 14
	leaq	.LC3(%rip), %rdi
	call	bg_err
	.loc 1 392 48
	movl	$0, %eax
	jmp	.L26
.L25:
	.loc 1 395 8
	movq	-40(%rbp), %rax
	movl	$0, %esi
	movq	%rax, %rdi
	call	bg_AddTargetData@PLT
	.loc 1 395 6
	testl	%eax, %eax
	jns	.L28
	.loc 1 396 12
	leaq	.LC3(%rip), %rdi
	call	bg_err
	.loc 1 396 46
	movl	$0, %eax
	jmp	.L26
.L28:
	.loc 1 402 60
	movq	-48(%rbp), %rax
	movq	(%rax), %rax
	.loc 1 402 8
	movl	%eax, %edx
	.loc 1 402 31
	movq	-40(%rbp), %rax
	movq	(%rax), %rax
	.loc 1 402 35
	movl	1272(%rax), %eax
	.loc 1 402 8
	movl	%eax, %ecx
	movq	-40(%rbp), %rax
	movl	%ecx, %esi
	movq	%rax, %rdi
	call	bg_AddTargetBits@PLT
	.loc 1 402 6
	testl	%eax, %eax
	jne	.L29
	.loc 1 403 12
	leaq	.LC3(%rip), %rdi
	call	bg_err
	.loc 1 403 46
	movl	$0, %eax
	jmp	.L26
.L29:
	.loc 1 404 60
	movq	-48(%rbp), %rax
	movq	8(%rax), %rax
	.loc 1 404 8
	movl	%eax, %edx
	.loc 1 404 31
	movq	-40(%rbp), %rax
	movq	(%rax), %rax
	.loc 1 404 35
	movl	1276(%rax), %eax
	.loc 1 404 8
	movl	%eax, %ecx
	movq	-40(%rbp), %rax
	movl	%ecx, %esi
	movq	%rax, %rdi
	call	bg_AddTargetBits@PLT
	.loc 1 404 6
	testl	%eax, %eax
	jne	.L30
	.loc 1 405 12
	leaq	.LC3(%rip), %rdi
	call	bg_err
	.loc 1 405 46
	movl	$0, %eax
	jmp	.L26
.L30:
	.loc 1 406 60
	movq	-48(%rbp), %rax
	movq	16(%rax), %rax
	.loc 1 406 8
	movl	%eax, %edx
	.loc 1 406 73
	movq	-40(%rbp), %rax
	movq	(%rax), %rax
	.loc 1 406 77
	movl	1264(%rax), %eax
	.loc 1 406 97
	subl	$1, %eax
	.loc 1 406 68
	movl	$1, %esi
	movl	%eax, %ecx
	sall	%cl, %esi
	movl	%esi, %eax
	.loc 1 406 8
	addl	%eax, %edx
	.loc 1 406 31
	movq	-40(%rbp), %rax
	movq	(%rax), %rax
	.loc 1 406 35
	movl	1264(%rax), %eax
	.loc 1 406 8
	movl	%eax, %ecx
	movq	-40(%rbp), %rax
	movl	%ecx, %esi
	movq	%rax, %rdi
	call	bg_AddTargetBits@PLT
	.loc 1 406 6
	testl	%eax, %eax
	jne	.L31
	.loc 1 407 12
	leaq	.LC3(%rip), %rdi
	call	bg_err
	.loc 1 407 46
	movl	$0, %eax
	jmp	.L26
.L31:
	.loc 1 408 60
	movq	-48(%rbp), %rax
	movq	24(%rax), %rax
	.loc 1 408 8
	movl	%eax, %edx
	.loc 1 408 73
	movq	-40(%rbp), %rax
	movq	(%rax), %rax
	.loc 1 408 77
	movl	1268(%rax), %eax
	.loc 1 408 97
	subl	$1, %eax
	.loc 1 408 68
	movl	$1, %esi
	movl	%eax, %ecx
	sall	%cl, %esi
	movl	%esi, %eax
	.loc 1 408 8
	addl	%eax, %edx
	.loc 1 408 31
	movq	-40(%rbp), %rax
	movq	(%rax), %rax
	.loc 1 408 35
	movl	1268(%rax), %eax
	.loc 1 408 8
	movl	%eax, %ecx
	movq	-40(%rbp), %rax
	movl	%ecx, %esi
	movq	%rax, %rdi
	call	bg_AddTargetBits@PLT
	.loc 1 408 6
	testl	%eax, %eax
	jne	.L32
	.loc 1 409 12
	leaq	.LC3(%rip), %rdi
	call	bg_err
	.loc 1 409 46
	movl	$0, %eax
	jmp	.L26
.L32:
	.loc 1 411 10
	movq	-40(%rbp), %rax
	movq	(%rax), %rax
	.loc 1 411 14
	movl	1160(%rax), %eax
	.loc 1 411 6
	testl	%eax, %eax
	jne	.L33
	.loc 1 413 58
	movq	-40(%rbp), %rax
	movq	24(%rax), %rax
	.loc 1 413 10
	movl	%eax, %edx
	.loc 1 413 78
	movq	-40(%rbp), %rax
	movq	(%rax), %rax
	.loc 1 413 82
	movl	1280(%rax), %eax
	.loc 1 413 99
	subl	$1, %eax
	.loc 1 413 73
	movl	$1, %esi
	movl	%eax, %ecx
	sall	%cl, %esi
	movl	%esi, %eax
	.loc 1 413 10
	addl	%eax, %edx
	.loc 1 413 33
	movq	-40(%rbp), %rax
	movq	(%rax), %rax
	.loc 1 413 37
	movl	1280(%rax), %eax
	.loc 1 413 10
	movl	%eax, %ecx
	movq	-40(%rbp), %rax
	movl	%ecx, %esi
	movq	%rax, %rdi
	call	bg_AddTargetBits@PLT
	.loc 1 413 8
	testl	%eax, %eax
	jne	.L34
	.loc 1 414 14
	leaq	.LC3(%rip), %rdi
	call	bg_err
	.loc 1 414 48
	movl	$0, %eax
	jmp	.L26
.L33:
	.loc 1 416 15
	movq	-40(%rbp), %rax
	movq	(%rax), %rax
	.loc 1 416 19
	movl	1160(%rax), %eax
	.loc 1 416 11
	cmpl	$2, %eax
	jne	.L35
	.loc 1 418 59
	movq	-48(%rbp), %rax
	movq	(%rax), %rax
	.loc 1 418 10
	movl	%eax, %edx
	.loc 1 418 71
	movq	-40(%rbp), %rax
	movq	(%rax), %rax
	.loc 1 418 75
	movl	1280(%rax), %eax
	.loc 1 418 92
	subl	$1, %eax
	.loc 1 418 66
	movl	$1, %esi
	movl	%eax, %ecx
	sall	%cl, %esi
	movl	%esi, %eax
	.loc 1 418 10
	addl	%eax, %edx
	.loc 1 418 33
	movq	-40(%rbp), %rax
	movq	(%rax), %rax
	.loc 1 418 37
	movl	1280(%rax), %eax
	.loc 1 418 10
	movl	%eax, %ecx
	movq	-40(%rbp), %rax
	movl	%ecx, %esi
	movq	%rax, %rdi
	call	bg_AddTargetBits@PLT
	.loc 1 418 8
	testl	%eax, %eax
	jne	.L34
	.loc 1 419 14
	leaq	.LC3(%rip), %rdi
	call	bg_err
	.loc 1 419 48
	movl	$0, %eax
	jmp	.L26
.L35:
	.loc 1 423 59
	movq	-48(%rbp), %rax
	movq	(%rax), %rax
	.loc 1 423 10
	movl	%eax, %edx
	.loc 1 423 71
	movq	-40(%rbp), %rax
	movq	(%rax), %rax
	.loc 1 423 75
	movl	1280(%rax), %eax
	.loc 1 423 92
	subl	$1, %eax
	.loc 1 423 66
	movl	$1, %esi
	movl	%eax, %ecx
	sall	%cl, %esi
	movl	%esi, %eax
	.loc 1 423 10
	addl	%eax, %edx
	.loc 1 423 33
	movq	-40(%rbp), %rax
	movq	(%rax), %rax
	.loc 1 423 37
	movl	1280(%rax), %eax
	.loc 1 423 10
	movl	%eax, %ecx
	movq	-40(%rbp), %rax
	movl	%ecx, %esi
	movq	%rax, %rdi
	call	bg_AddTargetBits@PLT
	.loc 1 423 8
	testl	%eax, %eax
	jne	.L34
	.loc 1 424 14
	leaq	.LC3(%rip), %rdi
	call	bg_err
	.loc 1 424 48
	movl	$0, %eax
	jmp	.L26
.L34:
	.loc 1 427 13
	movl	$0, -16(%rbp)
	.loc 1 428 15
	movl	$0, -12(%rbp)
	.loc 1 429 14
	movl	$0, -8(%rbp)
	.loc 1 430 14
	movl	$0, -4(%rbp)
	.loc 1 434 15
	movq	-48(%rbp), %rax
	movq	24(%rax), %rax
	.loc 1 434 18
	movl	%eax, %edx
	.loc 1 434 22
	movq	-48(%rbp), %rax
	movq	8(%rax), %rax
	.loc 1 434 18
	addl	%edx, %eax
	.loc 1 434 25
	subl	$1, %eax
	.loc 1 434 10
	movl	%eax, -24(%rbp)
	.loc 1 434 3
	jmp	.L36
.L44:
	.loc 1 436 17
	movq	-48(%rbp), %rax
	movq	16(%rax), %rax
	.loc 1 436 12
	movl	%eax, -28(%rbp)
	.loc 1 436 5
	jmp	.L37
.L43:
	.loc 1 438 12
	movl	-24(%rbp), %edx
	movl	-28(%rbp), %ecx
	movq	-40(%rbp), %rax
	movl	%ecx, %esi
	movq	%rax, %rdi
	call	bg_GetBBXPixel@PLT
	.loc 1 438 10
	testl	%eax, %eax
	jne	.L38
	.loc 1 440 5
	cmpl	$0, -16(%rbp)
	je	.L39
	.loc 1 442 24
	movl	-4(%rbp), %eax
	cltq
	leaq	0(,%rax,4), %rcx
	leaq	bd_list.3155(%rip), %rdx
	movl	-12(%rbp), %eax
	movl	%eax, (%rcx,%rdx)
	.loc 1 443 14
	movl	$0, -16(%rbp)
	.loc 1 444 14
	addl	$1, -4(%rbp)
	.loc 1 445 16
	movl	$0, -12(%rbp)
.L39:
	.loc 1 447 13
	addl	$1, -12(%rbp)
	jmp	.L40
.L38:
	.loc 1 451 5
	cmpl	$0, -16(%rbp)
	jne	.L41
	.loc 1 453 24
	movl	-4(%rbp), %eax
	cltq
	leaq	0(,%rax,4), %rcx
	leaq	bd_list.3155(%rip), %rdx
	movl	-12(%rbp), %eax
	movl	%eax, (%rcx,%rdx)
	.loc 1 454 14
	movl	$1, -16(%rbp)
	.loc 1 455 14
	addl	$1, -4(%rbp)
	.loc 1 456 16
	movl	$0, -12(%rbp)
.L41:
	.loc 1 458 13
	addl	$1, -12(%rbp)
.L40:
	.loc 1 461 10
	movl	-8(%rbp), %eax
	cmpl	-12(%rbp), %eax
	jge	.L42
	.loc 1 462 13
	movl	-12(%rbp), %eax
	movl	%eax, -8(%rbp)
.L42:
	.loc 1 436 44 discriminator 2
	addl	$1, -28(%rbp)
.L37:
	.loc 1 436 24 discriminator 1
	movl	-28(%rbp), %eax
	movslq	%eax, %rdx
	.loc 1 436 29 discriminator 1
	movq	-48(%rbp), %rax
	movq	16(%rax), %rcx
	.loc 1 436 38 discriminator 1
	movq	-48(%rbp), %rax
	movq	(%rax), %rax
	.loc 1 436 33 discriminator 1
	addq	%rcx, %rax
	.loc 1 436 5 discriminator 1
	cmpq	%rax, %rdx
	jl	.L43
	.loc 1 434 43 discriminator 2
	subl	$1, -24(%rbp)
.L36:
	.loc 1 434 31 discriminator 1
	movl	-24(%rbp), %eax
	movslq	%eax, %rdx
	.loc 1 434 37 discriminator 1
	movq	-48(%rbp), %rax
	movq	24(%rax), %rax
	.loc 1 434 3 discriminator 1
	cmpq	%rax, %rdx
	jge	.L44
	.loc 1 467 23
	movl	-4(%rbp), %eax
	cltq
	leaq	0(,%rax,4), %rcx
	leaq	bd_list.3155(%rip), %rdx
	movl	-12(%rbp), %eax
	movl	%eax, (%rcx,%rdx)
	.loc 1 468 13
	addl	$1, -4(%rbp)
	.loc 1 470 20
	movl	-4(%rbp), %eax
	andl	$1, %eax
	.loc 1 470 6
	testl	%eax, %eax
	je	.L45
	.loc 1 472 5
	cmpl	$0, -16(%rbp)
	je	.L46
	.loc 1 472 5 is_stmt 0 discriminator 1
	leaq	__PRETTY_FUNCTION__.3162(%rip), %rcx
	movl	$472, %edx
	leaq	.LC4(%rip), %rsi
	leaq	.LC5(%rip), %rdi
	call	__assert_fail@PLT
.L46:
	.loc 1 473 25 is_stmt 1
	movl	-4(%rbp), %eax
	cltq
	leaq	0(,%rax,4), %rdx
	leaq	bd_list.3155(%rip), %rax
	movl	$0, (%rdx,%rax)
	.loc 1 474 15
	addl	$1, -4(%rbp)
.L45:
	.loc 1 484 10
	movl	$0, -20(%rbp)
	.loc 1 484 3
	jmp	.L47
.L49:
	.loc 1 489 53
	movl	-20(%rbp), %eax
	addl	$1, %eax
	.loc 1 489 51
	cltq
	leaq	0(,%rax,4), %rdx
	leaq	bd_list.3155(%rip), %rax
	movl	(%rdx,%rax), %eax
	.loc 1 489 10
	movl	%eax, %esi
	.loc 1 489 39
	movl	-20(%rbp), %eax
	cltq
	leaq	0(,%rax,4), %rdx
	leaq	bd_list.3155(%rip), %rax
	movl	(%rdx,%rax), %eax
	.loc 1 489 10
	movl	%eax, %ecx
	movq	-40(%rbp), %rax
	movl	%esi, %edx
	movl	%ecx, %esi
	movq	%rax, %rdi
	call	bg_prepare_01_rle
	.loc 1 489 8
	testl	%eax, %eax
	jne	.L48
	.loc 1 490 14
	movl	$0, %eax
	jmp	.L26
.L48:
	.loc 1 484 32 discriminator 2
	addl	$2, -20(%rbp)
.L47:
	.loc 1 484 3 discriminator 1
	movl	-20(%rbp), %eax
	cmpl	-4(%rbp), %eax
	jl	.L49
	.loc 1 497 8
	movq	-40(%rbp), %rax
	movl	$0, %edx
	movl	$1, %esi
	movq	%rax, %rdi
	call	bg_AddTargetBits@PLT
	.loc 1 497 6
	testl	%eax, %eax
	jne	.L50
	.loc 1 498 12
	movl	$0, %eax
	jmp	.L26
.L50:
	.loc 1 500 8
	movq	-40(%rbp), %rax
	movq	%rax, %rdi
	call	bg_FlushTargetBits@PLT
	.loc 1 500 6
	testl	%eax, %eax
	jne	.L51
	.loc 1 501 12
	movl	$0, %eax
	jmp	.L26
.L51:
	.loc 1 504 10
	movq	-40(%rbp), %rax
	movq	16(%rax), %rax
	.loc 1 504 6
	cmpq	$255, %rax
	jg	.L52
	.loc 1 506 28
	movq	-40(%rbp), %rax
	movl	116(%rax), %edx
	.loc 1 506 7
	movq	-40(%rbp), %rax
	movq	104(%rax), %rax
	.loc 1 506 20
	addq	$1, %rax
	.loc 1 506 24
	movb	%dl, (%rax)
	jmp	.L53
.L52:
	.loc 1 510 28
	movq	-40(%rbp), %rax
	movl	116(%rax), %edx
	.loc 1 510 7
	movq	-40(%rbp), %rax
	movq	104(%rax), %rax
	.loc 1 510 20
	addq	$2, %rax
	.loc 1 510 24
	movb	%dl, (%rax)
.L53:
	.loc 1 526 10
	movl	$1, %eax
.L26:
	.loc 1 527 1
	leave
	.cfi_def_cfa 7, 8
	ret
	.cfi_endproc
.LFE10:
	.size	bg_rle_compress, .-bg_rle_compress
	.section	.rodata
	.align 8
.LC6:
	.string	"RLE Compress: Encoding %ld bits %u/%u"
	.text
	.globl	bf_RLECompressAllGlyphsWithFieldSize
	.type	bf_RLECompressAllGlyphsWithFieldSize, @function
bf_RLECompressAllGlyphsWithFieldSize:
.LFB11:
	.loc 1 530 1
	.cfi_startproc
	endbr64
	pushq	%rbp
	.cfi_def_cfa_offset 16
	.cfi_offset 6, -16
	movq	%rsp, %rbp
	.cfi_def_cfa_register 6
	subq	$112, %rsp
	movq	%rdi, -88(%rbp)
	movl	%esi, -92(%rbp)
	movl	%edx, -96(%rbp)
	movl	%ecx, -100(%rbp)
	.loc 1 530 1
	movq	%fs:40, %rax
	movq	%rax, -8(%rbp)
	xorl	%eax, %eax
	.loc 1 533 17
	movq	$0, -64(%rbp)
	.loc 1 536 10
	movl	$0, -68(%rbp)
	.loc 1 536 3
	jmp	.L55
.L57:
	.loc 1 538 12
	movq	-88(%rbp), %rax
	movq	8(%rax), %rax
	.loc 1 538 24
	movl	-68(%rbp), %edx
	movslq	%edx, %rdx
	salq	$3, %rdx
	addq	%rdx, %rax
	.loc 1 538 8
	movq	(%rax), %rax
	movq	%rax, -56(%rbp)
	.loc 1 539 12
	movq	-56(%rbp), %rax
	movq	16(%rax), %rax
	.loc 1 539 8
	testq	%rax, %rax
	js	.L56
	.loc 1 541 7
	movq	-56(%rbp), %rdx
	leaq	-48(%rbp), %rcx
	movq	-88(%rbp), %rax
	movq	%rcx, %rsi
	movq	%rax, %rdi
	call	bf_copy_bbx_and_update_shift@PLT
	.loc 1 597 7
	movl	-96(%rbp), %ecx
	movl	-92(%rbp), %edx
	movl	-100(%rbp), %edi
	leaq	-48(%rbp), %rsi
	movq	-56(%rbp), %rax
	movl	%edi, %r8d
	movq	%rax, %rdi
	call	bg_rle_compress
	.loc 1 598 23
	movq	-56(%rbp), %rax
	movl	116(%rax), %eax
	.loc 1 598 35
	leal	0(,%rax,8), %edx
	.loc 1 598 40
	movq	-56(%rbp), %rax
	movl	120(%rax), %eax
	.loc 1 598 37
	addl	%edx, %eax
	cltq
	.loc 1 598 18
	addq	%rax, -64(%rbp)
	.loc 1 599 10
	cmpl	$0, -100(%rbp)
	je	.L56
	.loc 1 601 86
	movq	-56(%rbp), %rax
	movl	116(%rax), %eax
	.loc 1 601 98
	leal	0(,%rax,8), %edx
	.loc 1 601 103
	movq	-56(%rbp), %rax
	movl	120(%rax), %eax
	.loc 1 601 2
	leal	(%rdx,%rax), %esi
	movq	-56(%rbp), %rax
	movl	136(%rax), %ecx
	movq	-56(%rbp), %rax
	movq	8(%rax), %rdx
	movq	-88(%rbp), %rax
	movl	%esi, %r8d
	leaq	.LC6(%rip), %rsi
	movq	%rax, %rdi
	movl	$0, %eax
	call	bf_Log@PLT
.L56:
	.loc 1 536 35 discriminator 2
	addl	$1, -68(%rbp)
.L55:
	.loc 1 536 21 discriminator 1
	movq	-88(%rbp), %rax
	movl	16(%rax), %eax
	.loc 1 536 3 discriminator 1
	cmpl	%eax, -68(%rbp)
	jl	.L57
	.loc 1 606 10
	movq	-64(%rbp), %rax
	.loc 1 607 1
	movq	-8(%rbp), %rdi
	xorq	%fs:40, %rdi
	je	.L59
	call	__stack_chk_fail@PLT
.L59:
	leave
	.cfi_def_cfa 7, 8
	ret
	.cfi_endproc
.LFE11:
	.size	bf_RLECompressAllGlyphsWithFieldSize, .-bf_RLECompressAllGlyphsWithFieldSize
	.globl	bf_RLE_get_glyph_data
	.type	bf_RLE_get_glyph_data, @function
bf_RLE_get_glyph_data:
.LFB12:
	.loc 1 611 1
	.cfi_startproc
	endbr64
	pushq	%rbp
	.cfi_def_cfa_offset 16
	.cfi_offset 6, -16
	movq	%rsp, %rbp
	.cfi_def_cfa_register 6
	movq	%rdi, -24(%rbp)
	movl	%esi, %eax
	movb	%al, -28(%rbp)
	.loc 1 612 12
	movq	-24(%rbp), %rax
	movq	1288(%rax), %rax
	movq	%rax, -8(%rbp)
	.loc 1 613 8
	addq	$23, -8(%rbp)
.L65:
	.loc 1 616 14
	movq	-8(%rbp), %rax
	addq	$1, %rax
	movzbl	(%rax), %eax
	.loc 1 616 8
	testb	%al, %al
	je	.L67
	.loc 1 618 14
	movq	-8(%rbp), %rax
	movzbl	(%rax), %eax
	.loc 1 618 8
	cmpb	%al, -28(%rbp)
	jne	.L63
	.loc 1 620 22
	movq	-24(%rbp), %rax
	movq	1288(%rax), %rax
	.loc 1 620 19
	movq	-8(%rbp), %rdx
	subq	%rax, %rdx
	movq	%rdx, %rax
	.loc 1 620 36
	subl	$23, %eax
	jmp	.L64
.L63:
	.loc 1 622 17
	movq	-8(%rbp), %rax
	addq	$1, %rax
	movzbl	(%rax), %eax
	movzbl	%al, %eax
	.loc 1 622 10
	addq	%rax, -8(%rbp)
	.loc 1 616 8
	jmp	.L65
.L67:
	.loc 1 617 7
	nop
	.loc 1 624 10
	movl	$0, %eax
.L64:
	.loc 1 625 1
	popq	%rbp
	.cfi_def_cfa 7, 8
	ret
	.cfi_endproc
.LFE12:
	.size	bf_RLE_get_glyph_data, .-bf_RLE_get_glyph_data
	.section	.rodata
	.align 8
.LC7:
	.string	"RLE Compress: best zero bits %d, one bits %d, total bit size %lu"
	.align 8
.LC8:
	.string	"RLE Compress: Font code generation, selected glyphs=%d, total glyphs=%d"
	.align 8
.LC9:
	.string	"RLE Compress: Error, glyph too large, encoding=%ld cnt=%d"
	.align 8
.LC10:
	.string	"RLE Compress: ASCII gylphs=%d, Unicode glyphs=%d"
	.align 8
.LC11:
	.string	"RLE Compress: Glyphs per unicode lookup table entry=%d"
	.align 8
.LC12:
	.string	"RLE Compress: Error, glyph too large, encoding=%ld"
	.align 8
.LC13:
	.string	"RLE Compress: Unicode lookup table len=%d, written entries=%d"
	.align 8
.LC14:
	.string	"RLE Compress: Unicode lookup table first entry: delta=%d, encoding=%d"
	.align 8
.LC15:
	.string	"RLE Compress: Unicode lookup table last entry: delta=%d, encoding=%d"
	.align 8
.LC16:
	.string	"RLE Compress: Unicode glyphs written=%d"
	.align 8
.LC17:
	.string	"unicode_lookup_table_len == unicode_lookup_table_pos"
	.align 8
.LC18:
	.string	"RLE Compress: 'A' pos = %u, 'a' pos = %u"
.LC19:
	.string	"RLE Compress: Font size %d"
	.text
	.globl	bf_RLECompressAllGlyphs
	.type	bf_RLECompressAllGlyphs, @function
bf_RLECompressAllGlyphs:
.LFB13:
	.loc 1 629 1
	.cfi_startproc
	endbr64
	pushq	%rbp
	.cfi_def_cfa_offset 16
	.cfi_offset 6, -16
	movq	%rsp, %rbp
	.cfi_def_cfa_register 6
	pushq	%rbx
	subq	$152, %rsp
	.cfi_offset 3, -24
	movq	%rdi, -152(%rbp)
	.loc 1 634 7
	movl	$0, -124(%rbp)
	.loc 1 634 21
	movl	$0, -120(%rbp)
	.loc 1 635 17
	movq	$0, -32(%rbp)
	.loc 1 636 17
	movl	$4294967295, %eax
	movq	%rax, -40(%rbp)
	.loc 1 657 12
	movl	$0, -76(%rbp)
	.loc 1 659 20
	movl	$0, -116(%rbp)
	.loc 1 660 15
	movq	-152(%rbp), %rax
	movl	$65, %esi
	movq	%rax, %rdi
	call	bf_GetIndexByEncoding@PLT
	movl	%eax, -72(%rbp)
	.loc 1 661 6
	cmpl	$0, -72(%rbp)
	js	.L69
	.loc 1 663 26
	movq	-152(%rbp), %rax
	movq	8(%rax), %rax
	.loc 1 663 38
	movl	-72(%rbp), %edx
	movslq	%edx, %rdx
	salq	$3, %rdx
	addq	%rdx, %rax
	movq	(%rax), %rax
	.loc 1 663 54
	movq	48(%rax), %rax
	.loc 1 663 56
	movl	%eax, %ecx
	.loc 1 663 59
	movq	-152(%rbp), %rax
	movq	8(%rax), %rax
	.loc 1 663 71
	movl	-72(%rbp), %edx
	movslq	%edx, %rdx
	salq	$3, %rdx
	addq	%rdx, %rax
	movq	(%rax), %rax
	.loc 1 663 87
	movq	64(%rax), %rax
	.loc 1 663 56
	addl	%ecx, %eax
	.loc 1 663 22
	movl	%eax, -116(%rbp)
.L69:
	.loc 1 666 16
	movl	$0, -112(%rbp)
	.loc 1 667 11
	movq	-152(%rbp), %rax
	movl	$49, %esi
	movq	%rax, %rdi
	call	bf_GetIndexByEncoding@PLT
	movl	%eax, -68(%rbp)
	.loc 1 668 6
	cmpl	$0, -68(%rbp)
	js	.L70
	.loc 1 670 22
	movq	-152(%rbp), %rax
	movq	8(%rax), %rax
	.loc 1 670 34
	movl	-68(%rbp), %edx
	movslq	%edx, %rdx
	salq	$3, %rdx
	addq	%rdx, %rax
	movq	(%rax), %rax
	.loc 1 670 46
	movq	48(%rax), %rax
	.loc 1 670 48
	movl	%eax, %ecx
	.loc 1 670 51
	movq	-152(%rbp), %rax
	movq	8(%rax), %rax
	.loc 1 670 63
	movl	-68(%rbp), %edx
	movslq	%edx, %rdx
	salq	$3, %rdx
	addq	%rdx, %rax
	movq	(%rax), %rax
	.loc 1 670 75
	movq	64(%rax), %rax
	.loc 1 670 48
	addl	%ecx, %eax
	.loc 1 670 18
	movl	%eax, -112(%rbp)
.L70:
	.loc 1 673 17
	movl	$0, -108(%rbp)
	.loc 1 674 11
	movq	-152(%rbp), %rax
	movl	$103, %esi
	movq	%rax, %rdi
	call	bf_GetIndexByEncoding@PLT
	movl	%eax, -64(%rbp)
	.loc 1 675 6
	cmpl	$0, -64(%rbp)
	js	.L71
	.loc 1 677 23
	movq	-152(%rbp), %rax
	movq	8(%rax), %rax
	.loc 1 677 35
	movl	-64(%rbp), %edx
	movslq	%edx, %rdx
	salq	$3, %rdx
	addq	%rdx, %rax
	movq	(%rax), %rax
	.loc 1 677 47
	movq	64(%rax), %rax
	.loc 1 677 19
	movl	%eax, -108(%rbp)
.L71:
	.loc 1 681 19
	movl	$0, -104(%rbp)
	.loc 1 682 14
	movq	-152(%rbp), %rax
	movl	$40, %esi
	movq	%rax, %rdi
	call	bf_GetIndexByEncoding@PLT
	movl	%eax, -60(%rbp)
	.loc 1 683 6
	cmpl	$0, -60(%rbp)
	js	.L72
	.loc 1 685 25
	movq	-152(%rbp), %rax
	movq	8(%rax), %rax
	.loc 1 685 37
	movl	-60(%rbp), %edx
	movslq	%edx, %rdx
	salq	$3, %rdx
	addq	%rdx, %rax
	movq	(%rax), %rax
	.loc 1 685 52
	movq	48(%rax), %rax
	.loc 1 685 54
	movl	%eax, %ecx
	.loc 1 685 57
	movq	-152(%rbp), %rax
	movq	8(%rax), %rax
	.loc 1 685 69
	movl	-60(%rbp), %edx
	movslq	%edx, %rdx
	salq	$3, %rdx
	addq	%rdx, %rax
	movq	(%rax), %rax
	.loc 1 685 84
	movq	64(%rax), %rax
	.loc 1 685 54
	addl	%ecx, %eax
	.loc 1 685 21
	movl	%eax, -104(%rbp)
	.loc 1 686 26
	movq	-152(%rbp), %rax
	movq	8(%rax), %rax
	.loc 1 686 38
	movl	-60(%rbp), %edx
	movslq	%edx, %rdx
	salq	$3, %rdx
	addq	%rdx, %rax
	movq	(%rax), %rax
	.loc 1 686 53
	movq	64(%rax), %rax
	.loc 1 686 22
	movl	%eax, -100(%rbp)
	jmp	.L73
.L72:
	.loc 1 690 21
	movl	-116(%rbp), %eax
	movl	%eax, -104(%rbp)
	.loc 1 691 8
	cmpl	$0, -104(%rbp)
	jne	.L74
	.loc 1 692 23
	movl	-112(%rbp), %eax
	movl	%eax, -104(%rbp)
.L74:
	.loc 1 694 22
	movl	-108(%rbp), %eax
	movl	%eax, -100(%rbp)
.L73:
	.loc 1 698 14
	movl	$2, -132(%rbp)
	.loc 1 698 3
	jmp	.L75
.L79:
	.loc 1 700 16
	movl	$2, -128(%rbp)
	.loc 1 700 5
	jmp	.L76
.L78:
	.loc 1 702 20
	movl	-128(%rbp), %edx
	movl	-132(%rbp), %esi
	movq	-152(%rbp), %rax
	movl	$0, %ecx
	movq	%rax, %rdi
	call	bf_RLECompressAllGlyphsWithFieldSize
	movq	%rax, -32(%rbp)
	.loc 1 703 10
	movq	-40(%rbp), %rax
	cmpq	-32(%rbp), %rax
	jbe	.L77
	.loc 1 705 17
	movq	-32(%rbp), %rax
	movq	%rax, -40(%rbp)
	.loc 1 706 13
	movl	-132(%rbp), %eax
	movl	%eax, -124(%rbp)
	.loc 1 707 13
	movl	-128(%rbp), %eax
	movl	%eax, -120(%rbp)
.L77:
	.loc 1 700 37 discriminator 2
	addl	$1, -128(%rbp)
.L76:
	.loc 1 700 5 discriminator 1
	cmpl	$6, -128(%rbp)
	jle	.L78
	.loc 1 698 35 discriminator 2
	addl	$1, -132(%rbp)
.L75:
	.loc 1 698 3 discriminator 1
	cmpl	$8, -132(%rbp)
	jle	.L79
	.loc 1 712 3
	movq	-40(%rbp), %rsi
	movl	-120(%rbp), %ecx
	movl	-124(%rbp), %edx
	movq	-152(%rbp), %rax
	movq	%rsi, %r8
	leaq	.LC7(%rip), %rsi
	movq	%rax, %rdi
	movl	$0, %eax
	call	bf_Log@PLT
	.loc 1 713 3
	movl	-120(%rbp), %edx
	movl	-124(%rbp), %esi
	movq	-152(%rbp), %rax
	movl	$0, %ecx
	movq	%rax, %rdi
	call	bf_RLECompressAllGlyphsWithFieldSize
	.loc 1 716 3
	movq	-152(%rbp), %rax
	movq	%rax, %rdi
	call	bf_ClearTargetData@PLT
	.loc 1 729 3
	movq	-152(%rbp), %rax
	movl	16(%rax), %ecx
	movq	-152(%rbp), %rax
	movq	1152(%rax), %rdx
	movq	-152(%rbp), %rax
	leaq	.LC8(%rip), %rsi
	movq	%rax, %rdi
	movl	$0, %eax
	call	bf_Log@PLT
	.loc 1 732 26
	movq	-152(%rbp), %rax
	movq	1152(%rax), %rax
	.loc 1 732 3
	movzbl	%al, %edx
	movq	-152(%rbp), %rax
	movl	%edx, %esi
	movq	%rax, %rdi
	call	bf_AddTargetData@PLT
	.loc 1 733 26
	movq	-152(%rbp), %rax
	movl	1160(%rax), %eax
	.loc 1 733 3
	movzbl	%al, %edx
	movq	-152(%rbp), %rax
	movl	%edx, %esi
	movq	%rax, %rdi
	call	bf_AddTargetData@PLT
	.loc 1 734 3
	movl	-124(%rbp), %eax
	movzbl	%al, %edx
	movq	-152(%rbp), %rax
	movl	%edx, %esi
	movq	%rax, %rdi
	call	bf_AddTargetData@PLT
	.loc 1 735 3
	movl	-120(%rbp), %eax
	movzbl	%al, %edx
	movq	-152(%rbp), %rax
	movl	%edx, %esi
	movq	%rax, %rdi
	call	bf_AddTargetData@PLT
	.loc 1 738 26
	movq	-152(%rbp), %rax
	movl	1272(%rax), %eax
	.loc 1 738 3
	movzbl	%al, %edx
	movq	-152(%rbp), %rax
	movl	%edx, %esi
	movq	%rax, %rdi
	call	bf_AddTargetData@PLT
	.loc 1 739 26
	movq	-152(%rbp), %rax
	movl	1276(%rax), %eax
	.loc 1 739 3
	movzbl	%al, %edx
	movq	-152(%rbp), %rax
	movl	%edx, %esi
	movq	%rax, %rdi
	call	bf_AddTargetData@PLT
	.loc 1 740 26
	movq	-152(%rbp), %rax
	movl	1264(%rax), %eax
	.loc 1 740 3
	movzbl	%al, %edx
	movq	-152(%rbp), %rax
	movl	%edx, %esi
	movq	%rax, %rdi
	call	bf_AddTargetData@PLT
	.loc 1 741 26
	movq	-152(%rbp), %rax
	movl	1268(%rax), %eax
	.loc 1 741 3
	movzbl	%al, %edx
	movq	-152(%rbp), %rax
	movl	%edx, %esi
	movq	%rax, %rdi
	call	bf_AddTargetData@PLT
	.loc 1 742 26
	movq	-152(%rbp), %rax
	movl	1280(%rax), %eax
	.loc 1 742 3
	movzbl	%al, %edx
	movq	-152(%rbp), %rax
	movl	%edx, %esi
	movq	%rax, %rdi
	call	bf_AddTargetData@PLT
	.loc 1 745 31
	movq	-152(%rbp), %rax
	movq	1168(%rax), %rax
	.loc 1 745 3
	movzbl	%al, %edx
	movq	-152(%rbp), %rax
	movl	%edx, %esi
	movq	%rax, %rdi
	call	bf_AddTargetData@PLT
	.loc 1 746 31
	movq	-152(%rbp), %rax
	movq	1176(%rax), %rax
	.loc 1 746 3
	movzbl	%al, %edx
	movq	-152(%rbp), %rax
	movl	%edx, %esi
	movq	%rax, %rdi
	call	bf_AddTargetData@PLT
	.loc 1 747 31
	movq	-152(%rbp), %rax
	movq	1184(%rax), %rax
	.loc 1 747 3
	movzbl	%al, %edx
	movq	-152(%rbp), %rax
	movl	%edx, %esi
	movq	%rax, %rdi
	call	bf_AddTargetData@PLT
	.loc 1 748 31
	movq	-152(%rbp), %rax
	movq	1192(%rax), %rax
	.loc 1 748 3
	movzbl	%al, %edx
	movq	-152(%rbp), %rax
	movl	%edx, %esi
	movq	%rax, %rdi
	call	bf_AddTargetData@PLT
	.loc 1 751 6
	cmpl	$0, -116(%rbp)
	jle	.L80
	.loc 1 752 5
	movl	-116(%rbp), %eax
	movzbl	%al, %edx
	movq	-152(%rbp), %rax
	movl	%edx, %esi
	movq	%rax, %rdi
	call	bf_AddTargetData@PLT
	jmp	.L81
.L80:
	.loc 1 754 5
	movl	-112(%rbp), %eax
	movzbl	%al, %edx
	movq	-152(%rbp), %rax
	movl	%edx, %esi
	movq	%rax, %rdi
	call	bf_AddTargetData@PLT
.L81:
	.loc 1 755 3
	movl	-108(%rbp), %eax
	movzbl	%al, %edx
	movq	-152(%rbp), %rax
	movl	%edx, %esi
	movq	%rax, %rdi
	call	bf_AddTargetData@PLT
	.loc 1 758 3
	movl	-104(%rbp), %eax
	movzbl	%al, %edx
	movq	-152(%rbp), %rax
	movl	%edx, %esi
	movq	%rax, %rdi
	call	bf_AddTargetData@PLT
	.loc 1 759 3
	movl	-100(%rbp), %eax
	movzbl	%al, %edx
	movq	-152(%rbp), %rax
	movl	%edx, %esi
	movq	%rax, %rdi
	call	bf_AddTargetData@PLT
	.loc 1 762 3
	movq	-152(%rbp), %rax
	movl	$0, %esi
	movq	%rax, %rdi
	call	bf_AddTargetData@PLT
	.loc 1 763 3
	movq	-152(%rbp), %rax
	movl	$0, %esi
	movq	%rax, %rdi
	call	bf_AddTargetData@PLT
	.loc 1 766 3
	movq	-152(%rbp), %rax
	movl	$0, %esi
	movq	%rax, %rdi
	call	bf_AddTargetData@PLT
	.loc 1 767 3
	movq	-152(%rbp), %rax
	movl	$0, %esi
	movq	%rax, %rdi
	call	bf_AddTargetData@PLT
	.loc 1 770 3
	movq	-152(%rbp), %rax
	movl	$0, %esi
	movq	%rax, %rdi
	call	bf_AddTargetData@PLT
	.loc 1 771 3
	movq	-152(%rbp), %rax
	movl	$0, %esi
	movq	%rax, %rdi
	call	bf_AddTargetData@PLT
	.loc 1 775 16
	movl	$0, -96(%rbp)
	.loc 1 776 10
	movl	$0, -140(%rbp)
	.loc 1 776 3
	jmp	.L82
.L87:
	.loc 1 778 12
	movq	-152(%rbp), %rax
	movq	8(%rax), %rax
	.loc 1 778 24
	movl	-140(%rbp), %edx
	movslq	%edx, %rdx
	salq	$3, %rdx
	addq	%rdx, %rax
	.loc 1 778 8
	movq	(%rax), %rax
	movq	%rax, -24(%rbp)
	.loc 1 779 12
	movq	-24(%rbp), %rax
	movq	16(%rax), %rax
	.loc 1 779 8
	testq	%rax, %rax
	js	.L83
	.loc 1 779 31 discriminator 1
	movq	-24(%rbp), %rax
	movq	16(%rax), %rax
	.loc 1 779 26 discriminator 1
	cmpq	$255, %rax
	jg	.L83
	.loc 1 781 14
	movq	-24(%rbp), %rax
	movq	104(%rax), %rax
	.loc 1 781 10
	testq	%rax, %rax
	je	.L83
	.loc 1 784 9
	movq	-24(%rbp), %rax
	movl	116(%rax), %eax
	.loc 1 784 5
	cmpl	$254, %eax
	jle	.L84
	.loc 1 786 4
	movq	-24(%rbp), %rax
	movl	116(%rax), %ecx
	movq	-24(%rbp), %rax
	movq	8(%rax), %rdx
	movq	-152(%rbp), %rax
	leaq	.LC9(%rip), %rsi
	movq	%rax, %rdi
	movl	$0, %eax
	call	bf_Error@PLT
	.loc 1 787 4
	movl	$1, %edi
	call	exit@PLT
.L84:
	.loc 1 790 9
	movl	$0, -136(%rbp)
	.loc 1 790 2
	jmp	.L85
.L86:
	.loc 1 792 27 discriminator 3
	movq	-24(%rbp), %rax
	movq	104(%rax), %rdx
	.loc 1 792 40 discriminator 3
	movl	-136(%rbp), %eax
	cltq
	addq	%rdx, %rax
	movzbl	(%rax), %eax
	.loc 1 792 4 discriminator 3
	movzbl	%al, %edx
	movq	-152(%rbp), %rax
	movl	%edx, %esi
	movq	%rax, %rdi
	call	bf_AddTargetData@PLT
	.loc 1 790 35 discriminator 3
	addl	$1, -136(%rbp)
.L85:
	.loc 1 790 20 discriminator 1
	movq	-24(%rbp), %rax
	movl	116(%rax), %eax
	.loc 1 790 2 discriminator 1
	cmpl	%eax, -136(%rbp)
	jl	.L86
	.loc 1 794 14
	addl	$1, -96(%rbp)
.L83:
	.loc 1 776 35 discriminator 2
	addl	$1, -140(%rbp)
.L82:
	.loc 1 776 21 discriminator 1
	movq	-152(%rbp), %rax
	movl	16(%rax), %eax
	.loc 1 776 3 discriminator 1
	cmpl	%eax, -140(%rbp)
	jl	.L87
	.loc 1 799 3
	movq	-152(%rbp), %rax
	movl	$0, %esi
	movq	%rax, %rdi
	call	bf_AddTargetData@PLT
	.loc 1 800 3
	movq	-152(%rbp), %rax
	movl	$0, %esi
	movq	%rax, %rdi
	call	bf_AddTargetData@PLT
	.loc 1 802 25
	movq	-152(%rbp), %rax
	movl	1300(%rax), %eax
	.loc 1 802 37
	subl	$23, %eax
	.loc 1 802 21
	movl	%eax, -56(%rbp)
	.loc 1 806 82
	movq	-152(%rbp), %rax
	movq	1152(%rax), %rdx
	.loc 1 806 3
	movl	-96(%rbp), %eax
	movq	%rdx, %rcx
	subq	%rax, %rcx
	movl	-96(%rbp), %edx
	movq	-152(%rbp), %rax
	leaq	.LC10(%rip), %rsi
	movq	%rax, %rdi
	movl	$0, %eax
	call	bf_Log@PLT
	.loc 1 807 33
	movq	-152(%rbp), %rax
	movq	1152(%rax), %rdx
	.loc 1 807 50
	movl	-96(%rbp), %eax
	movq	%rdx, %rcx
	subq	%rax, %rcx
	.loc 1 807 65
	movabsq	$-6757718126012409997, %rdx
	movq	%rcx, %rax
	imulq	%rdx
	leaq	(%rdx,%rcx), %rax
	sarq	$6, %rax
	movq	%rax, %rdx
	movq	%rcx, %rax
	sarq	$63, %rax
	subq	%rax, %rdx
	movq	%rdx, %rax
	.loc 1 807 28
	movl	%eax, -52(%rbp)
	.loc 1 810 3
	movq	-152(%rbp), %rax
	movl	$101, %edx
	leaq	.LC11(%rip), %rsi
	movq	%rax, %rdi
	movl	$0, %eax
	call	bf_Log@PLT
	.loc 1 811 34
	movq	-152(%rbp), %rax
	movl	1300(%rax), %eax
	.loc 1 811 30
	movl	%eax, -48(%rbp)
	.loc 1 814 10
	movl	$1, -140(%rbp)
	.loc 1 814 3
	jmp	.L88
.L89:
	.loc 1 816 5 discriminator 3
	movq	-152(%rbp), %rax
	movl	$0, %esi
	movq	%rax, %rdi
	call	bf_AddTargetData@PLT
	.loc 1 817 5 discriminator 3
	movq	-152(%rbp), %rax
	movl	$0, %esi
	movq	%rax, %rdi
	call	bf_AddTargetData@PLT
	.loc 1 818 5 discriminator 3
	movq	-152(%rbp), %rax
	movl	$0, %esi
	movq	%rax, %rdi
	call	bf_AddTargetData@PLT
	.loc 1 819 5 discriminator 3
	movq	-152(%rbp), %rax
	movl	$0, %esi
	movq	%rax, %rdi
	call	bf_AddTargetData@PLT
	.loc 1 814 46 discriminator 3
	addl	$1, -140(%rbp)
.L88:
	.loc 1 814 17 discriminator 1
	movl	-140(%rbp), %eax
	.loc 1 814 3 discriminator 1
	cmpl	%eax, -52(%rbp)
	ja	.L89
	.loc 1 822 3
	movq	-152(%rbp), %rax
	movl	$0, %esi
	movq	%rax, %rdi
	call	bf_AddTargetData@PLT
	.loc 1 823 3
	movq	-152(%rbp), %rax
	movl	$4, %esi
	movq	%rax, %rdi
	call	bf_AddTargetData@PLT
	.loc 1 824 3
	movq	-152(%rbp), %rax
	movl	$255, %esi
	movq	%rax, %rdi
	call	bf_AddTargetData@PLT
	.loc 1 825 3
	movq	-152(%rbp), %rax
	movl	$255, %esi
	movq	%rax, %rdi
	call	bf_AddTargetData@PLT
	.loc 1 829 28
	movl	$0, -84(%rbp)
	.loc 1 830 34
	movl	$0, -80(%rbp)
	.loc 1 831 26
	movq	-152(%rbp), %rax
	movl	1300(%rax), %eax
	.loc 1 831 22
	subl	-48(%rbp), %eax
	movl	%eax, -92(%rbp)
	.loc 1 832 31
	movq	-152(%rbp), %rax
	movl	1300(%rax), %eax
	.loc 1 832 27
	movl	%eax, -88(%rbp)
	.loc 1 833 21
	movl	$0, -76(%rbp)
	.loc 1 836 10
	movl	$0, -140(%rbp)
	.loc 1 836 3
	jmp	.L90
.L96:
	.loc 1 838 12
	movq	-152(%rbp), %rax
	movq	8(%rax), %rax
	.loc 1 838 24
	movl	-140(%rbp), %edx
	movslq	%edx, %rdx
	salq	$3, %rdx
	addq	%rdx, %rax
	.loc 1 838 8
	movq	(%rax), %rax
	movq	%rax, -24(%rbp)
	.loc 1 839 12
	movq	-24(%rbp), %rax
	movq	16(%rax), %rax
	.loc 1 839 8
	cmpq	$255, %rax
	jle	.L91
	.loc 1 841 14
	movq	-24(%rbp), %rax
	movq	104(%rax), %rax
	.loc 1 841 10
	testq	%rax, %rax
	je	.L91
	.loc 1 844 9
	movq	-24(%rbp), %rax
	movl	116(%rax), %eax
	.loc 1 844 5
	cmpl	$254, %eax
	jle	.L92
	.loc 1 846 4
	movq	-24(%rbp), %rax
	movq	8(%rax), %rdx
	movq	-152(%rbp), %rax
	leaq	.LC12(%rip), %rsi
	movq	%rax, %rdi
	movl	$0, %eax
	call	bf_Error@PLT
	.loc 1 847 4
	movl	$1, %edi
	call	exit@PLT
.L92:
	.loc 1 850 9
	movl	$0, -136(%rbp)
	.loc 1 850 2
	jmp	.L93
.L94:
	.loc 1 852 27 discriminator 3
	movq	-24(%rbp), %rax
	movq	104(%rax), %rdx
	.loc 1 852 40 discriminator 3
	movl	-136(%rbp), %eax
	cltq
	addq	%rdx, %rax
	movzbl	(%rax), %eax
	.loc 1 852 4 discriminator 3
	movzbl	%al, %edx
	movq	-152(%rbp), %rax
	movl	%edx, %esi
	movq	%rax, %rdi
	call	bf_AddTargetData@PLT
	.loc 1 850 35 discriminator 3
	addl	$1, -136(%rbp)
.L93:
	.loc 1 850 20 discriminator 1
	movq	-24(%rbp), %rax
	movl	116(%rax), %eax
	.loc 1 850 2 discriminator 1
	cmpl	%eax, -136(%rbp)
	jl	.L94
	.loc 1 860 32
	addl	$1, -80(%rbp)
	.loc 1 862 6
	cmpl	$100, -80(%rbp)
	jbe	.L95
	.loc 1 865 7
	movl	-84(%rbp), %eax
	cmpl	-52(%rbp), %eax
	jnb	.L95
	.loc 1 867 99
	movl	-92(%rbp), %eax
	shrl	$8, %eax
	movl	%eax, %esi
	.loc 1 867 8
	movq	-152(%rbp), %rax
	movq	1288(%rax), %rax
	.loc 1 867 73
	movl	-84(%rbp), %edx
	leal	0(,%rdx,4), %ecx
	.loc 1 867 75
	movl	-48(%rbp), %edx
	addl	%ecx, %edx
	movl	%edx, %edx
	.loc 1 867 21
	addq	%rdx, %rax
	.loc 1 867 79
	movl	%esi, %edx
	movb	%dl, (%rax)
	.loc 1 868 8
	movq	-152(%rbp), %rax
	movq	1288(%rax), %rax
	.loc 1 868 73
	movl	-84(%rbp), %edx
	leal	0(,%rdx,4), %ecx
	.loc 1 868 48
	movl	-48(%rbp), %edx
	addl	%ecx, %edx
	.loc 1 868 75
	addl	$1, %edx
	movl	%edx, %edx
	.loc 1 868 21
	addq	%rdx, %rax
	.loc 1 868 79
	movl	-92(%rbp), %edx
	movb	%dl, (%rax)
	.loc 1 869 8
	movq	-152(%rbp), %rax
	movq	1288(%rax), %rax
	.loc 1 869 79
	movl	-84(%rbp), %edx
	leal	0(,%rdx,4), %ecx
	movl	-48(%rbp), %edx
	addl	%ecx, %edx
	addl	$2, %edx
	movl	%edx, %edx
	addq	%rdx, %rax
	movzbl	(%rax), %eax
	movl	%eax, %edx
	.loc 1 869 84
	movq	-24(%rbp), %rax
	movq	8(%rax), %rax
	.loc 1 869 94
	sarq	$8, %rax
	.loc 1 869 79
	movl	%edx, %esi
	orl	%eax, %esi
	.loc 1 869 8
	movq	-152(%rbp), %rax
	movq	1288(%rax), %rax
	.loc 1 869 79
	movl	-84(%rbp), %edx
	leal	0(,%rdx,4), %ecx
	movl	-48(%rbp), %edx
	addl	%ecx, %edx
	addl	$2, %edx
	movl	%edx, %edx
	addq	%rdx, %rax
	movl	%esi, %edx
	movb	%dl, (%rax)
	.loc 1 870 8
	movq	-152(%rbp), %rax
	movq	1288(%rax), %rax
	.loc 1 870 79
	movl	-84(%rbp), %edx
	leal	0(,%rdx,4), %ecx
	movl	-48(%rbp), %edx
	addl	%ecx, %edx
	addl	$3, %edx
	movl	%edx, %edx
	addq	%rdx, %rax
	movzbl	(%rax), %eax
	movl	%eax, %edx
	.loc 1 870 84
	movq	-24(%rbp), %rax
	movq	8(%rax), %rax
	.loc 1 870 79
	movl	%edx, %esi
	orl	%eax, %esi
	.loc 1 870 8
	movq	-152(%rbp), %rax
	movq	1288(%rax), %rax
	.loc 1 870 79
	movl	-84(%rbp), %edx
	leal	0(,%rdx,4), %ecx
	movl	-48(%rbp), %edx
	addl	%ecx, %edx
	addl	$3, %edx
	movl	%edx, %edx
	addq	%rdx, %rax
	movl	%esi, %edx
	movb	%dl, (%rax)
	.loc 1 872 30
	addl	$1, -84(%rbp)
	.loc 1 873 37
	movl	$0, -80(%rbp)
	.loc 1 874 29
	movq	-152(%rbp), %rax
	movl	1300(%rax), %eax
	.loc 1 874 25
	subl	-88(%rbp), %eax
	movl	%eax, -92(%rbp)
	.loc 1 875 34
	movq	-152(%rbp), %rax
	movl	1300(%rax), %eax
	.loc 1 875 30
	movl	%eax, -88(%rbp)
.L95:
	.loc 1 880 26
	addl	$1, -76(%rbp)
.L91:
	.loc 1 836 35 discriminator 2
	addl	$1, -140(%rbp)
.L90:
	.loc 1 836 21 discriminator 1
	movq	-152(%rbp), %rax
	movl	16(%rax), %eax
	.loc 1 836 3 discriminator 1
	cmpl	%eax, -140(%rbp)
	jl	.L96
	.loc 1 887 6
	movl	-84(%rbp), %eax
	cmpl	-52(%rbp), %eax
	jnb	.L97
	.loc 1 889 98
	movl	-92(%rbp), %eax
	shrl	$8, %eax
	movl	%eax, %esi
	.loc 1 889 7
	movq	-152(%rbp), %rax
	movq	1288(%rax), %rax
	.loc 1 889 72
	movl	-84(%rbp), %edx
	leal	0(,%rdx,4), %ecx
	.loc 1 889 74
	movl	-48(%rbp), %edx
	addl	%ecx, %edx
	movl	%edx, %edx
	.loc 1 889 20
	addq	%rdx, %rax
	.loc 1 889 78
	movl	%esi, %edx
	movb	%dl, (%rax)
	.loc 1 890 7
	movq	-152(%rbp), %rax
	movq	1288(%rax), %rax
	.loc 1 890 72
	movl	-84(%rbp), %edx
	leal	0(,%rdx,4), %ecx
	.loc 1 890 47
	movl	-48(%rbp), %edx
	addl	%ecx, %edx
	.loc 1 890 74
	addl	$1, %edx
	movl	%edx, %edx
	.loc 1 890 20
	addq	%rdx, %rax
	.loc 1 890 78
	movl	-92(%rbp), %edx
	movb	%dl, (%rax)
	.loc 1 891 7
	movq	-152(%rbp), %rax
	movq	1288(%rax), %rax
	.loc 1 891 72
	movl	-84(%rbp), %edx
	leal	0(,%rdx,4), %ecx
	.loc 1 891 47
	movl	-48(%rbp), %edx
	addl	%ecx, %edx
	.loc 1 891 74
	addl	$2, %edx
	movl	%edx, %edx
	.loc 1 891 20
	addq	%rdx, %rax
	.loc 1 891 78
	movb	$-1, (%rax)
	.loc 1 892 7
	movq	-152(%rbp), %rax
	movq	1288(%rax), %rax
	.loc 1 892 72
	movl	-84(%rbp), %edx
	leal	0(,%rdx,4), %ecx
	.loc 1 892 47
	movl	-48(%rbp), %edx
	addl	%ecx, %edx
	.loc 1 892 74
	addl	$3, %edx
	movl	%edx, %edx
	.loc 1 892 20
	addq	%rdx, %rax
	.loc 1 892 78
	movb	$-1, (%rax)
	.loc 1 893 29
	addl	$1, -84(%rbp)
.L97:
	.loc 1 897 3
	movq	-152(%rbp), %rax
	movl	$0, %esi
	movq	%rax, %rdi
	call	bf_AddTargetData@PLT
	.loc 1 898 3
	movq	-152(%rbp), %rax
	movl	$0, %esi
	movq	%rax, %rdi
	call	bf_AddTargetData@PLT
	.loc 1 900 3
	movl	-84(%rbp), %ecx
	movl	-52(%rbp), %edx
	movq	-152(%rbp), %rax
	leaq	.LC13(%rip), %rsi
	movq	%rax, %rdi
	movl	$0, %eax
	call	bf_Log@PLT
	.loc 1 903 7
	movq	-152(%rbp), %rax
	movq	1288(%rax), %rax
	.loc 1 903 47
	movl	-48(%rbp), %edx
	addl	$2, %edx
	movl	%edx, %edx
	.loc 1 903 20
	addq	%rdx, %rax
	movzbl	(%rax), %eax
	movzbl	%al, %eax
	.loc 1 903 50
	sall	$8, %eax
	movl	%eax, %ecx
	.loc 1 903 57
	movq	-152(%rbp), %rax
	movq	1288(%rax), %rax
	.loc 1 903 97
	movl	-48(%rbp), %edx
	addl	$3, %edx
	movl	%edx, %edx
	.loc 1 903 70
	addq	%rdx, %rax
	movzbl	(%rax), %eax
	movzbl	%al, %eax
	.loc 1 901 3
	addl	%eax, %ecx
	.loc 1 902 7
	movq	-152(%rbp), %rax
	movq	1288(%rax), %rdx
	.loc 1 902 47
	movl	-48(%rbp), %eax
	.loc 1 902 20
	addq	%rdx, %rax
	movzbl	(%rax), %eax
	movzbl	%al, %eax
	.loc 1 902 50
	sall	$8, %eax
	movl	%eax, %esi
	.loc 1 902 57
	movq	-152(%rbp), %rax
	movq	1288(%rax), %rax
	.loc 1 902 97
	movl	-48(%rbp), %edx
	addl	$1, %edx
	movl	%edx, %edx
	.loc 1 902 70
	addq	%rdx, %rax
	movzbl	(%rax), %eax
	movzbl	%al, %eax
	.loc 1 901 3
	leal	(%rsi,%rax), %edx
	movq	-152(%rbp), %rax
	leaq	.LC14(%rip), %rsi
	movq	%rax, %rdi
	movl	$0, %eax
	call	bf_Log@PLT
	.loc 1 907 7
	movq	-152(%rbp), %rax
	movq	1288(%rax), %rax
	.loc 1 907 72
	movl	-84(%rbp), %edx
	leal	0(,%rdx,4), %ecx
	.loc 1 907 47
	movl	-48(%rbp), %edx
	addl	%ecx, %edx
	.loc 1 907 76
	subl	$2, %edx
	movl	%edx, %edx
	.loc 1 907 20
	addq	%rdx, %rax
	movzbl	(%rax), %eax
	movzbl	%al, %eax
	.loc 1 907 79
	sall	$8, %eax
	movl	%eax, %ecx
	.loc 1 907 86
	movq	-152(%rbp), %rax
	movq	1288(%rax), %rax
	.loc 1 907 151
	movl	-84(%rbp), %edx
	leal	0(,%rdx,4), %esi
	.loc 1 907 126
	movl	-48(%rbp), %edx
	addl	%esi, %edx
	.loc 1 907 155
	subl	$1, %edx
	movl	%edx, %edx
	.loc 1 907 99
	addq	%rdx, %rax
	movzbl	(%rax), %eax
	movzbl	%al, %eax
	.loc 1 905 3
	addl	%eax, %ecx
	.loc 1 906 7
	movq	-152(%rbp), %rax
	movq	1288(%rax), %rax
	.loc 1 906 72
	movl	-84(%rbp), %edx
	leal	0(,%rdx,4), %esi
	.loc 1 906 47
	movl	-48(%rbp), %edx
	addl	%esi, %edx
	.loc 1 906 76
	subl	$4, %edx
	movl	%edx, %edx
	.loc 1 906 20
	addq	%rdx, %rax
	movzbl	(%rax), %eax
	movzbl	%al, %eax
	.loc 1 906 79
	sall	$8, %eax
	movl	%eax, %esi
	.loc 1 906 86
	movq	-152(%rbp), %rax
	movq	1288(%rax), %rax
	.loc 1 906 151
	movl	-84(%rbp), %edx
	leal	0(,%rdx,4), %edi
	.loc 1 906 126
	movl	-48(%rbp), %edx
	addl	%edi, %edx
	.loc 1 906 155
	subl	$3, %edx
	movl	%edx, %edx
	.loc 1 906 99
	addq	%rdx, %rax
	movzbl	(%rax), %eax
	movzbl	%al, %eax
	.loc 1 905 3
	leal	(%rsi,%rax), %edx
	movq	-152(%rbp), %rax
	leaq	.LC15(%rip), %rsi
	movq	%rax, %rdi
	movl	$0, %eax
	call	bf_Log@PLT
	.loc 1 909 3
	movl	-76(%rbp), %edx
	movq	-152(%rbp), %rax
	leaq	.LC16(%rip), %rsi
	movq	%rax, %rdi
	movl	$0, %eax
	call	bf_Log@PLT
	.loc 1 912 3
	movl	-52(%rbp), %eax
	cmpl	-84(%rbp), %eax
	je	.L98
	.loc 1 912 3 is_stmt 0 discriminator 1
	leaq	__PRETTY_FUNCTION__.3238(%rip), %rcx
	movl	$912, %edx
	leaq	.LC4(%rip), %rsi
	leaq	.LC17(%rip), %rdi
	call	__assert_fail@PLT
.L98:
	.loc 1 914 9 is_stmt 1
	movq	-152(%rbp), %rax
	movl	$65, %esi
	movq	%rax, %rdi
	call	bf_RLE_get_glyph_data
	movl	%eax, -44(%rbp)
	.loc 1 915 29
	movl	-44(%rbp), %eax
	shrl	$8, %eax
	movl	%eax, %edx
	.loc 1 915 5
	movq	-152(%rbp), %rax
	movq	1288(%rax), %rax
	.loc 1 915 18
	addq	$17, %rax
	.loc 1 915 23
	movb	%dl, (%rax)
	.loc 1 916 5
	movq	-152(%rbp), %rax
	movq	1288(%rax), %rax
	.loc 1 916 18
	addq	$18, %rax
	.loc 1 916 23
	movl	-44(%rbp), %edx
	movb	%dl, (%rax)
	.loc 1 918 9
	movq	-152(%rbp), %rax
	movl	$97, %esi
	movq	%rax, %rdi
	call	bf_RLE_get_glyph_data
	movl	%eax, -44(%rbp)
	.loc 1 919 29
	movl	-44(%rbp), %eax
	shrl	$8, %eax
	movl	%eax, %edx
	.loc 1 919 5
	movq	-152(%rbp), %rax
	movq	1288(%rax), %rax
	.loc 1 919 18
	addq	$19, %rax
	.loc 1 919 23
	movb	%dl, (%rax)
	.loc 1 920 5
	movq	-152(%rbp), %rax
	movq	1288(%rax), %rax
	.loc 1 920 18
	addq	$20, %rax
	.loc 1 920 23
	movl	-44(%rbp), %edx
	movb	%dl, (%rax)
	.loc 1 922 43
	movl	-56(%rbp), %eax
	shrl	$8, %eax
	movl	%eax, %edx
	.loc 1 922 5
	movq	-152(%rbp), %rax
	movq	1288(%rax), %rax
	.loc 1 922 18
	addq	$21, %rax
	.loc 1 922 23
	movb	%dl, (%rax)
	.loc 1 923 5
	movq	-152(%rbp), %rax
	movq	1288(%rax), %rax
	.loc 1 923 18
	addq	$22, %rax
	.loc 1 923 23
	movl	-56(%rbp), %edx
	movb	%dl, (%rax)
	.loc 1 925 3
	movq	-152(%rbp), %rax
	movl	$97, %esi
	movq	%rax, %rdi
	call	bf_RLE_get_glyph_data
	movl	%eax, %ebx
	movq	-152(%rbp), %rax
	movl	$65, %esi
	movq	%rax, %rdi
	call	bf_RLE_get_glyph_data
	movl	%eax, %edx
	movq	-152(%rbp), %rax
	movl	%ebx, %ecx
	leaq	.LC18(%rip), %rsi
	movq	%rax, %rdi
	movl	$0, %eax
	call	bf_Log@PLT
	.loc 1 927 3
	movq	-152(%rbp), %rax
	movl	1300(%rax), %edx
	movq	-152(%rbp), %rax
	leaq	.LC19(%rip), %rsi
	movq	%rax, %rdi
	movl	$0, %eax
	call	bf_Log@PLT
	.loc 1 929 1
	nop
	addq	$152, %rsp
	popq	%rbx
	popq	%rbp
	.cfi_def_cfa 7, 8
	ret
	.cfi_endproc
.LFE13:
	.size	bf_RLECompressAllGlyphs, .-bf_RLECompressAllGlyphs
	.local	bd_list.3155
	.comm	bd_list.3155,8192,32
	.section	.rodata
	.align 16
	.type	__PRETTY_FUNCTION__.3162, @object
	.size	__PRETTY_FUNCTION__.3162, 16
__PRETTY_FUNCTION__.3162:
	.string	"bg_rle_compress"
	.align 16
	.type	__PRETTY_FUNCTION__.3238, @object
	.size	__PRETTY_FUNCTION__.3238, 24
__PRETTY_FUNCTION__.3238:
	.string	"bf_RLECompressAllGlyphs"
	.text
.Letext0:
	.file 2 "/usr/lib/gcc/x86_64-linux-gnu/9/include/stddef.h"
	.file 3 "/usr/include/x86_64-linux-gnu/bits/types.h"
	.file 4 "/usr/include/x86_64-linux-gnu/bits/types/struct_FILE.h"
	.file 5 "/usr/include/x86_64-linux-gnu/bits/types/FILE.h"
	.file 6 "/usr/include/stdio.h"
	.file 7 "/usr/include/x86_64-linux-gnu/bits/sys_errlist.h"
	.file 8 "/usr/include/x86_64-linux-gnu/bits/stdint-uintn.h"
	.file 9 "bdf_glyph.h"
	.file 10 "bdf_font.h"
	.section	.note.GNU-stack,"",@progbits
	.section	.note.gnu.property,"a"
	.align 8
	.long	 1f - 0f
	.long	 4f - 1f
	.long	 5
0:
	.string	 "GNU"
1:
	.align 8
	.long	 0xc0000002
	.long	 3f - 2f
2:
	.long	 0x3
3:
	.align 8
4:
