	.file	"bdf_font.c"
	.text
.Ltext0:
	.globl	bf_Error
	.type	bf_Error, @function
bf_Error:
.LFB6:
	.file 1 "bdf_font.c"
	.loc 1 8 1
	.cfi_startproc
	endbr64
	pushq	%rbp
	.cfi_def_cfa_offset 16
	.cfi_offset 6, -16
	movq	%rsp, %rbp
	.cfi_def_cfa_register 6
	subq	$224, %rsp
	movq	%rdi, -216(%rbp)
	movq	%rsi, -224(%rbp)
	movq	%rdx, -160(%rbp)
	movq	%rcx, -152(%rbp)
	movq	%r8, -144(%rbp)
	movq	%r9, -136(%rbp)
	testb	%al, %al
	je	.L2
	movaps	%xmm0, -128(%rbp)
	movaps	%xmm1, -112(%rbp)
	movaps	%xmm2, -96(%rbp)
	movaps	%xmm3, -80(%rbp)
	movaps	%xmm4, -64(%rbp)
	movaps	%xmm5, -48(%rbp)
	movaps	%xmm6, -32(%rbp)
	movaps	%xmm7, -16(%rbp)
.L2:
	.loc 1 8 1
	movq	%fs:40, %rax
	movq	%rax, -184(%rbp)
	xorl	%eax, %eax
	.loc 1 10 3
	movl	$16, -208(%rbp)
	movl	$48, -204(%rbp)
	leaq	16(%rbp), %rax
	movq	%rax, -200(%rbp)
	leaq	-176(%rbp), %rax
	movq	%rax, -192(%rbp)
	.loc 1 11 3
	leaq	-208(%rbp), %rdx
	movq	-224(%rbp), %rax
	movq	%rdx, %rsi
	movq	%rax, %rdi
	call	vprintf@PLT
	.loc 1 12 3
	movl	$10, %edi
	call	putchar@PLT
	.loc 1 14 1
	nop
	movq	-184(%rbp), %rax
	xorq	%fs:40, %rax
	je	.L3
	call	__stack_chk_fail@PLT
.L3:
	leave
	.cfi_def_cfa 7, 8
	ret
	.cfi_endproc
.LFE6:
	.size	bf_Error, .-bf_Error
	.globl	bf_Log
	.type	bf_Log, @function
bf_Log:
.LFB7:
	.loc 1 17 1
	.cfi_startproc
	endbr64
	pushq	%rbp
	.cfi_def_cfa_offset 16
	.cfi_offset 6, -16
	movq	%rsp, %rbp
	.cfi_def_cfa_register 6
	subq	$224, %rsp
	movq	%rdi, -216(%rbp)
	movq	%rsi, -224(%rbp)
	movq	%rdx, -160(%rbp)
	movq	%rcx, -152(%rbp)
	movq	%r8, -144(%rbp)
	movq	%r9, -136(%rbp)
	testb	%al, %al
	je	.L5
	movaps	%xmm0, -128(%rbp)
	movaps	%xmm1, -112(%rbp)
	movaps	%xmm2, -96(%rbp)
	movaps	%xmm3, -80(%rbp)
	movaps	%xmm4, -64(%rbp)
	movaps	%xmm5, -48(%rbp)
	movaps	%xmm6, -32(%rbp)
	movaps	%xmm7, -16(%rbp)
.L5:
	.loc 1 17 1
	movq	%fs:40, %rax
	movq	%rax, -184(%rbp)
	xorl	%eax, %eax
	.loc 1 19 3
	movl	$16, -208(%rbp)
	movl	$48, -204(%rbp)
	leaq	16(%rbp), %rax
	movq	%rax, -200(%rbp)
	leaq	-176(%rbp), %rax
	movq	%rax, -192(%rbp)
	.loc 1 20 10
	movq	-216(%rbp), %rax
	movl	(%rax), %eax
	.loc 1 20 6
	testl	%eax, %eax
	je	.L8
	.loc 1 22 5
	leaq	-208(%rbp), %rdx
	movq	-224(%rbp), %rax
	movq	%rdx, %rsi
	movq	%rax, %rdi
	call	vprintf@PLT
	.loc 1 23 5
	movl	$10, %edi
	call	putchar@PLT
.L8:
	.loc 1 26 1
	nop
	movq	-184(%rbp), %rax
	xorq	%fs:40, %rax
	je	.L7
	call	__stack_chk_fail@PLT
.L7:
	leave
	.cfi_def_cfa 7, 8
	ret
	.cfi_endproc
.LFE7:
	.size	bf_Log, .-bf_Log
	.globl	bf_Open
	.type	bf_Open, @function
bf_Open:
.LFB8:
	.loc 1 32 1
	.cfi_startproc
	endbr64
	pushq	%rbp
	.cfi_def_cfa_offset 16
	.cfi_offset 6, -16
	movq	%rsp, %rbp
	.cfi_def_cfa_register 6
	subq	$32, %rsp
	movl	%edi, -20(%rbp)
	movl	%esi, -24(%rbp)
	.loc 1 34 16
	movl	$1312, %edi
	call	malloc@PLT
	movq	%rax, -8(%rbp)
	.loc 1 35 6
	cmpq	$0, -8(%rbp)
	je	.L10
	.loc 1 37 20
	movq	-8(%rbp), %rax
	movl	-20(%rbp), %edx
	movl	%edx, (%rax)
	.loc 1 38 20
	movq	-8(%rbp), %rax
	movq	$0, 8(%rax)
	.loc 1 39 19
	movq	-8(%rbp), %rax
	movl	$0, 16(%rax)
	.loc 1 40 19
	movq	-8(%rbp), %rax
	movl	$0, 20(%rax)
	.loc 1 41 18
	movq	-8(%rbp), %rax
	movq	$0, 1136(%rax)
	.loc 1 42 23
	movq	-8(%rbp), %rax
	movq	$0, 1144(%rax)
	.loc 1 43 21
	movq	-8(%rbp), %rax
	movq	$0, 1288(%rax)
	.loc 1 44 20
	movq	-8(%rbp), %rax
	movl	$0, 1296(%rax)
	.loc 1 45 20
	movq	-8(%rbp), %rax
	movl	$0, 1300(%rax)
	.loc 1 46 25
	movq	-8(%rbp), %rax
	movq	$0, 1152(%rax)
	.loc 1 48 15
	movq	-8(%rbp), %rax
	movq	$0, 1200(%rax)
	.loc 1 49 15
	movq	-8(%rbp), %rax
	movq	$0, 1208(%rax)
	.loc 1 50 15
	movq	-8(%rbp), %rax
	movq	$0, 1216(%rax)
	.loc 1 51 15
	movq	-8(%rbp), %rax
	movq	$0, 1224(%rax)
	.loc 1 53 18
	movq	-8(%rbp), %rax
	movl	-24(%rbp), %edx
	movl	%edx, 1160(%rax)
	.loc 1 54 21
	movq	-8(%rbp), %rax
	movl	$1, 1304(%rax)
	.loc 1 55 21
	movq	-8(%rbp), %rax
	movl	$1, 1308(%rax)
	.loc 1 57 12
	movq	-8(%rbp), %rax
	jmp	.L11
.L10:
	.loc 1 59 10
	movl	$0, %eax
.L11:
	.loc 1 60 1
	leave
	.cfi_def_cfa 7, 8
	ret
	.cfi_endproc
.LFE8:
	.size	bf_Open, .-bf_Open
	.globl	bf_Clear
	.type	bf_Clear, @function
bf_Clear:
.LFB9:
	.loc 1 63 1
	.cfi_startproc
	endbr64
	pushq	%rbp
	.cfi_def_cfa_offset 16
	.cfi_offset 6, -16
	movq	%rsp, %rbp
	.cfi_def_cfa_register 6
	subq	$32, %rsp
	movq	%rdi, -24(%rbp)
	.loc 1 65 10
	movl	$0, -4(%rbp)
	.loc 1 65 3
	jmp	.L13
.L14:
	.loc 1 67 13 discriminator 3
	movq	-24(%rbp), %rax
	movq	8(%rax), %rax
	.loc 1 67 25 discriminator 3
	movl	-4(%rbp), %edx
	movslq	%edx, %rdx
	salq	$3, %rdx
	addq	%rdx, %rax
	.loc 1 67 5 discriminator 3
	movq	(%rax), %rax
	movq	%rax, %rdi
	call	free@PLT
	.loc 1 65 35 discriminator 3
	addl	$1, -4(%rbp)
.L13:
	.loc 1 65 21 discriminator 1
	movq	-24(%rbp), %rax
	movl	16(%rax), %eax
	.loc 1 65 3 discriminator 1
	cmpl	%eax, -4(%rbp)
	jl	.L14
	.loc 1 69 17
	movq	-24(%rbp), %rax
	movl	$0, 16(%rax)
	.loc 1 71 10
	movq	-24(%rbp), %rax
	movq	1136(%rax), %rax
	.loc 1 71 6
	testq	%rax, %rax
	je	.L15
	.loc 1 72 12
	movq	-24(%rbp), %rax
	movq	1136(%rax), %rax
	.loc 1 72 5
	movq	%rax, %rdi
	call	free@PLT
.L15:
	.loc 1 73 16
	movq	-24(%rbp), %rax
	movq	$0, 1136(%rax)
	.loc 1 74 10
	movq	-24(%rbp), %rax
	movq	1144(%rax), %rax
	.loc 1 74 6
	testq	%rax, %rax
	je	.L16
	.loc 1 75 12
	movq	-24(%rbp), %rax
	movq	1144(%rax), %rax
	.loc 1 75 5
	movq	%rax, %rdi
	call	free@PLT
.L16:
	.loc 1 76 21
	movq	-24(%rbp), %rax
	movq	$0, 1144(%rax)
	.loc 1 77 1
	nop
	leave
	.cfi_def_cfa 7, 8
	ret
	.cfi_endproc
.LFE9:
	.size	bf_Clear, .-bf_Clear
	.globl	bf_Close
	.type	bf_Close, @function
bf_Close:
.LFB10:
	.loc 1 80 1
	.cfi_startproc
	endbr64
	pushq	%rbp
	.cfi_def_cfa_offset 16
	.cfi_offset 6, -16
	movq	%rsp, %rbp
	.cfi_def_cfa_register 6
	subq	$16, %rsp
	movq	%rdi, -8(%rbp)
	.loc 1 81 3
	movq	-8(%rbp), %rax
	movq	%rax, %rdi
	call	bf_Clear
	.loc 1 82 10
	movq	-8(%rbp), %rax
	movq	8(%rax), %rax
	.loc 1 82 6
	testq	%rax, %rax
	je	.L18
	.loc 1 83 12
	movq	-8(%rbp), %rax
	movq	8(%rax), %rax
	.loc 1 83 5
	movq	%rax, %rdi
	call	free@PLT
.L18:
	.loc 1 84 10
	movq	-8(%rbp), %rax
	movq	1288(%rax), %rax
	.loc 1 84 6
	testq	%rax, %rax
	je	.L19
	.loc 1 85 12
	movq	-8(%rbp), %rax
	movq	1288(%rax), %rax
	.loc 1 85 5
	movq	%rax, %rdi
	call	free@PLT
.L19:
	.loc 1 86 18
	movq	-8(%rbp), %rax
	movq	$0, 8(%rax)
	.loc 1 87 17
	movq	-8(%rbp), %rax
	movl	$0, 20(%rax)
	.loc 1 88 3
	movq	-8(%rbp), %rax
	movq	%rax, %rdi
	call	free@PLT
	.loc 1 89 1
	nop
	leave
	.cfi_def_cfa 7, 8
	ret
	.cfi_endproc
.LFE10:
	.size	bf_Close, .-bf_Close
	.type	bf_extend, @function
bf_extend:
.LFB11:
	.loc 1 92 1
	.cfi_startproc
	endbr64
	pushq	%rbp
	.cfi_def_cfa_offset 16
	.cfi_offset 6, -16
	movq	%rsp, %rbp
	.cfi_def_cfa_register 6
	subq	$32, %rsp
	movq	%rdi, -24(%rbp)
	.loc 1 93 7
	movl	$16, -12(%rbp)
	.loc 1 95 10
	movq	-24(%rbp), %rax
	movq	8(%rax), %rax
	.loc 1 95 6
	testq	%rax, %rax
	jne	.L21
	.loc 1 97 11
	movl	-12(%rbp), %eax
	cltq
	salq	$3, %rax
	movq	%rax, %rdi
	call	malloc@PLT
	movq	%rax, -8(%rbp)
	.loc 1 98 19
	movq	-24(%rbp), %rax
	movl	$0, 20(%rax)
	jmp	.L22
.L21:
	.loc 1 102 38
	movq	-24(%rbp), %rax
	movl	20(%rax), %edx
	.loc 1 102 50
	movl	-12(%rbp), %eax
	addl	%edx, %eax
	cltq
	.loc 1 102 11
	leaq	0(,%rax,8), %rdx
	.loc 1 102 21
	movq	-24(%rbp), %rax
	movq	8(%rax), %rax
	.loc 1 102 11
	movq	%rdx, %rsi
	movq	%rax, %rdi
	call	realloc@PLT
	movq	%rax, -8(%rbp)
.L22:
	.loc 1 104 6
	cmpq	$0, -8(%rbp)
	jne	.L23
	.loc 1 105 12
	movl	$0, %eax
	jmp	.L24
.L23:
	.loc 1 106 17
	movq	-24(%rbp), %rax
	movl	20(%rax), %edx
	movl	-12(%rbp), %eax
	addl	%eax, %edx
	movq	-24(%rbp), %rax
	movl	%edx, 20(%rax)
	.loc 1 107 18
	movq	-24(%rbp), %rax
	movq	-8(%rbp), %rdx
	movq	%rdx, 8(%rax)
	.loc 1 108 10
	movl	$1, %eax
.L24:
	.loc 1 109 1
	leave
	.cfi_def_cfa 7, 8
	ret
	.cfi_endproc
.LFE11:
	.size	bf_extend, .-bf_extend
	.globl	bf_AddGlyph
	.type	bf_AddGlyph, @function
bf_AddGlyph:
.LFB12:
	.loc 1 113 1
	.cfi_startproc
	endbr64
	pushq	%rbp
	.cfi_def_cfa_offset 16
	.cfi_offset 6, -16
	movq	%rsp, %rbp
	.cfi_def_cfa_register 6
	pushq	%rbx
	subq	$24, %rsp
	.cfi_offset 3, -24
	movq	%rdi, -24(%rbp)
	.loc 1 114 10
	jmp	.L26
.L28:
	.loc 1 115 12
	movq	-24(%rbp), %rax
	movq	%rax, %rdi
	call	bf_extend
	.loc 1 115 10
	testl	%eax, %eax
	jne	.L26
	.loc 1 116 9
	movl	$-1, %eax
	jmp	.L27
.L26:
	.loc 1 114 14
	movq	-24(%rbp), %rax
	movl	20(%rax), %edx
	.loc 1 114 31
	movq	-24(%rbp), %rax
	movl	16(%rax), %eax
	.loc 1 114 10
	cmpl	%eax, %edx
	jle	.L28
	.loc 1 117 7
	movq	-24(%rbp), %rax
	movq	8(%rax), %rdx
	.loc 1 117 22
	movq	-24(%rbp), %rax
	movl	16(%rax), %eax
	cltq
	.loc 1 117 19
	salq	$3, %rax
	leaq	(%rdx,%rax), %rbx
	.loc 1 117 37
	call	bg_Open@PLT
	.loc 1 117 35
	movq	%rax, (%rbx)
	.loc 1 118 12
	movq	-24(%rbp), %rax
	movq	8(%rax), %rdx
	.loc 1 118 27
	movq	-24(%rbp), %rax
	movl	16(%rax), %eax
	cltq
	.loc 1 118 24
	salq	$3, %rax
	addq	%rdx, %rax
	movq	(%rax), %rax
	.loc 1 118 8
	testq	%rax, %rax
	jne	.L29
	.loc 1 119 14
	movl	$-1, %eax
	jmp	.L27
.L29:
	.loc 1 120 7
	movq	-24(%rbp), %rax
	movq	8(%rax), %rdx
	.loc 1 120 22
	movq	-24(%rbp), %rax
	movl	16(%rax), %eax
	cltq
	.loc 1 120 19
	salq	$3, %rax
	addq	%rdx, %rax
	movq	(%rax), %rax
	.loc 1 120 39
	movq	-24(%rbp), %rdx
	movq	%rdx, (%rax)
	.loc 1 121 7
	movq	-24(%rbp), %rax
	movl	16(%rax), %eax
	.loc 1 121 18
	leal	1(%rax), %edx
	movq	-24(%rbp), %rax
	movl	%edx, 16(%rax)
	.loc 1 122 14
	movq	-24(%rbp), %rax
	movl	16(%rax), %eax
	.loc 1 122 25
	subl	$1, %eax
.L27:
	.loc 1 123 1
	addq	$24, %rsp
	popq	%rbx
	popq	%rbp
	.cfi_def_cfa 7, 8
	ret
	.cfi_endproc
.LFE12:
	.size	bf_AddGlyph, .-bf_AddGlyph
	.type	bf_extend_target_data, @function
bf_extend_target_data:
.LFB13:
	.loc 1 127 1
	.cfi_startproc
	endbr64
	pushq	%rbp
	.cfi_def_cfa_offset 16
	.cfi_offset 6, -16
	movq	%rsp, %rbp
	.cfi_def_cfa_register 6
	subq	$32, %rsp
	movq	%rdi, -24(%rbp)
	.loc 1 128 7
	movl	$16, -12(%rbp)
	.loc 1 131 10
	movq	-24(%rbp), %rax
	movq	1288(%rax), %rax
	.loc 1 131 6
	testq	%rax, %rax
	jne	.L31
	.loc 1 133 11
	movl	-12(%rbp), %eax
	cltq
	movq	%rax, %rdi
	call	malloc@PLT
	movq	%rax, -8(%rbp)
	.loc 1 134 20
	movq	-24(%rbp), %rax
	movl	$0, 1296(%rax)
	jmp	.L32
.L31:
	.loc 1 138 39
	movq	-24(%rbp), %rax
	movl	1296(%rax), %edx
	.loc 1 138 52
	movl	-12(%rbp), %eax
	addl	%edx, %eax
	.loc 1 138 11
	movslq	%eax, %rdx
	.loc 1 138 21
	movq	-24(%rbp), %rax
	movq	1288(%rax), %rax
	.loc 1 138 11
	movq	%rdx, %rsi
	movq	%rax, %rdi
	call	realloc@PLT
	movq	%rax, -8(%rbp)
.L32:
	.loc 1 140 6
	cmpq	$0, -8(%rbp)
	jne	.L33
	.loc 1 141 12
	movl	$0, %eax
	jmp	.L34
.L33:
	.loc 1 142 19
	movq	-24(%rbp), %rax
	movq	-8(%rbp), %rdx
	movq	%rdx, 1288(%rax)
	.loc 1 143 10
	movq	-24(%rbp), %rax
	movl	1296(%rax), %eax
	movl	%eax, -16(%rbp)
	.loc 1 143 3
	jmp	.L35
.L36:
	.loc 1 144 9 discriminator 3
	movq	-24(%rbp), %rax
	movq	1288(%rax), %rdx
	.loc 1 144 22 discriminator 3
	movl	-16(%rbp), %eax
	cltq
	addq	%rdx, %rax
	.loc 1 144 26 discriminator 3
	movb	$0, (%rax)
	.loc 1 143 58 discriminator 3
	addl	$1, -16(%rbp)
.L35:
	.loc 1 143 34 discriminator 1
	movq	-24(%rbp), %rax
	movl	1296(%rax), %edx
	.loc 1 143 47 discriminator 1
	movl	-12(%rbp), %eax
	addl	%edx, %eax
	.loc 1 143 3 discriminator 1
	cmpl	%eax, -16(%rbp)
	jl	.L36
	.loc 1 145 18
	movq	-24(%rbp), %rax
	movl	1296(%rax), %edx
	movl	-12(%rbp), %eax
	addl	%eax, %edx
	movq	-24(%rbp), %rax
	movl	%edx, 1296(%rax)
	.loc 1 146 10
	movl	$1, %eax
.L34:
	.loc 1 147 1
	leave
	.cfi_def_cfa 7, 8
	ret
	.cfi_endproc
.LFE13:
	.size	bf_extend_target_data, .-bf_extend_target_data
	.globl	bf_AddTargetData
	.type	bf_AddTargetData, @function
bf_AddTargetData:
.LFB14:
	.loc 1 150 1
	.cfi_startproc
	endbr64
	pushq	%rbp
	.cfi_def_cfa_offset 16
	.cfi_offset 6, -16
	movq	%rsp, %rbp
	.cfi_def_cfa_register 6
	subq	$16, %rsp
	movq	%rdi, -8(%rbp)
	movl	%esi, %eax
	movb	%al, -12(%rbp)
	.loc 1 151 8
	jmp	.L38
.L40:
	.loc 1 152 10
	movq	-8(%rbp), %rax
	movq	%rax, %rdi
	call	bf_extend_target_data
	.loc 1 152 8
	testl	%eax, %eax
	jne	.L38
	.loc 1 153 14
	movl	$-1, %eax
	jmp	.L39
.L38:
	.loc 1 151 12
	movq	-8(%rbp), %rax
	movl	1296(%rax), %edx
	.loc 1 151 30
	movq	-8(%rbp), %rax
	movl	1300(%rax), %eax
	.loc 1 151 8
	cmpl	%eax, %edx
	jle	.L40
	.loc 1 154 5
	movq	-8(%rbp), %rax
	movq	1288(%rax), %rdx
	.loc 1 154 21
	movq	-8(%rbp), %rax
	movl	1300(%rax), %eax
	cltq
	.loc 1 154 18
	addq	%rax, %rdx
	.loc 1 154 35
	movzbl	-12(%rbp), %eax
	movb	%al, (%rdx)
	.loc 1 155 5
	movq	-8(%rbp), %rax
	movl	1300(%rax), %eax
	.loc 1 155 17
	leal	1(%rax), %edx
	movq	-8(%rbp), %rax
	movl	%edx, 1300(%rax)
	.loc 1 156 12
	movq	-8(%rbp), %rax
	movl	1300(%rax), %eax
	.loc 1 156 24
	subl	$1, %eax
.L39:
	.loc 1 157 1
	leave
	.cfi_def_cfa 7, 8
	ret
	.cfi_endproc
.LFE14:
	.size	bf_AddTargetData, .-bf_AddTargetData
	.globl	bf_ClearTargetData
	.type	bf_ClearTargetData, @function
bf_ClearTargetData:
.LFB15:
	.loc 1 160 1
	.cfi_startproc
	endbr64
	pushq	%rbp
	.cfi_def_cfa_offset 16
	.cfi_offset 6, -16
	movq	%rsp, %rbp
	.cfi_def_cfa_register 6
	movq	%rdi, -24(%rbp)
	.loc 1 162 10
	movl	$0, -4(%rbp)
	.loc 1 162 3
	jmp	.L42
.L43:
	.loc 1 163 7 discriminator 3
	movq	-24(%rbp), %rax
	movq	1288(%rax), %rdx
	.loc 1 163 20 discriminator 3
	movl	-4(%rbp), %eax
	cltq
	addq	%rdx, %rax
	.loc 1 163 24 discriminator 3
	movb	$0, (%rax)
	.loc 1 162 36 discriminator 3
	addl	$1, -4(%rbp)
.L42:
	.loc 1 162 21 discriminator 1
	movq	-24(%rbp), %rax
	movl	1296(%rax), %eax
	.loc 1 162 3 discriminator 1
	cmpl	%eax, -4(%rbp)
	jl	.L43
	.loc 1 164 18
	movq	-24(%rbp), %rax
	movl	$0, 1300(%rax)
	.loc 1 165 1
	nop
	popq	%rbp
	.cfi_def_cfa 7, 8
	ret
	.cfi_endproc
.LFE15:
	.size	bf_ClearTargetData, .-bf_ClearTargetData
	.globl	bf_CalculateSelectedNumberOfGlyphs
	.type	bf_CalculateSelectedNumberOfGlyphs, @function
bf_CalculateSelectedNumberOfGlyphs:
.LFB16:
	.loc 1 168 1
	.cfi_startproc
	endbr64
	pushq	%rbp
	.cfi_def_cfa_offset 16
	.cfi_offset 6, -16
	movq	%rsp, %rbp
	.cfi_def_cfa_register 6
	movq	%rdi, -24(%rbp)
	.loc 1 171 23
	movq	-24(%rbp), %rax
	movq	$0, 1152(%rax)
	.loc 1 174 10
	movl	$0, -12(%rbp)
	.loc 1 174 3
	jmp	.L45
.L47:
	.loc 1 176 12
	movq	-24(%rbp), %rax
	movq	8(%rax), %rax
	.loc 1 176 24
	movl	-12(%rbp), %edx
	movslq	%edx, %rdx
	salq	$3, %rdx
	addq	%rdx, %rax
	.loc 1 176 8
	movq	(%rax), %rax
	movq	%rax, -8(%rbp)
	.loc 1 177 12
	movq	-8(%rbp), %rax
	movq	16(%rax), %rax
	.loc 1 177 8
	testq	%rax, %rax
	js	.L46
	.loc 1 179 9
	movq	-24(%rbp), %rax
	movq	1152(%rax), %rax
	.loc 1 179 26
	leaq	1(%rax), %rdx
	movq	-24(%rbp), %rax
	movq	%rdx, 1152(%rax)
.L46:
	.loc 1 174 35 discriminator 2
	addl	$1, -12(%rbp)
.L45:
	.loc 1 174 21 discriminator 1
	movq	-24(%rbp), %rax
	movl	16(%rax), %eax
	.loc 1 174 3 discriminator 1
	cmpl	%eax, -12(%rbp)
	jl	.L47
	.loc 1 182 1
	nop
	nop
	popq	%rbp
	.cfi_def_cfa 7, 8
	ret
	.cfi_endproc
.LFE16:
	.size	bf_CalculateSelectedNumberOfGlyphs, .-bf_CalculateSelectedNumberOfGlyphs
	.section	.rodata
.LC0:
	.string	"Reduce: Start"
.LC1:
	.string	"Reduce: End"
	.text
	.globl	bf_ReduceAllGlyph
	.type	bf_ReduceAllGlyph, @function
bf_ReduceAllGlyph:
.LFB17:
	.loc 1 186 1
	.cfi_startproc
	endbr64
	pushq	%rbp
	.cfi_def_cfa_offset 16
	.cfi_offset 6, -16
	movq	%rsp, %rbp
	.cfi_def_cfa_register 6
	subq	$48, %rsp
	movq	%rdi, -40(%rbp)
	.loc 1 191 3
	movq	-40(%rbp), %rax
	leaq	.LC0(%rip), %rsi
	movq	%rax, %rdi
	movl	$0, %eax
	call	bf_Log
	.loc 1 193 10
	movl	$0, -20(%rbp)
	.loc 1 193 3
	jmp	.L49
.L51:
	.loc 1 195 12
	movq	-40(%rbp), %rax
	movq	8(%rax), %rax
	.loc 1 195 24
	movl	-20(%rbp), %edx
	movslq	%edx, %rdx
	salq	$3, %rdx
	addq	%rdx, %rax
	.loc 1 195 8
	movq	(%rax), %rax
	movq	%rax, -8(%rbp)
	.loc 1 196 12
	movq	-8(%rbp), %rax
	movq	16(%rax), %rax
	.loc 1 196 8
	testq	%rax, %rax
	js	.L50
	.loc 1 198 7
	movq	-8(%rbp), %rax
	movq	%rax, %rdi
	call	bg_ReduceGlyph@PLT
	.loc 1 200 17
	movq	-8(%rbp), %rax
	movl	96(%rax), %eax
	movl	%eax, %edx
	.loc 1 200 41
	movq	-8(%rbp), %rax
	movq	40(%rax), %rax
	.loc 1 200 32
	subl	%eax, %edx
	movl	%edx, %eax
	.loc 1 200 13
	movl	%eax, -16(%rbp)
	.loc 1 201 17
	movq	-8(%rbp), %rax
	movl	100(%rax), %eax
	movl	%eax, %edx
	.loc 1 201 42
	movq	-8(%rbp), %rax
	movq	48(%rax), %rax
	.loc 1 201 33
	subl	%eax, %edx
	movl	%edx, %eax
	.loc 1 201 13
	movl	%eax, -12(%rbp)
.L50:
	.loc 1 193 35 discriminator 2
	addl	$1, -20(%rbp)
.L49:
	.loc 1 193 21 discriminator 1
	movq	-40(%rbp), %rax
	movl	16(%rax), %eax
	.loc 1 193 3 discriminator 1
	cmpl	%eax, -20(%rbp)
	jl	.L51
	.loc 1 208 3
	movq	-40(%rbp), %rax
	leaq	.LC1(%rip), %rsi
	movq	%rax, %rdi
	movl	$0, %eax
	call	bf_Log
	.loc 1 210 1
	nop
	leave
	.cfi_def_cfa 7, 8
	ret
	.cfi_endproc
.LFE17:
	.size	bf_ReduceAllGlyph, .-bf_ReduceAllGlyph
	.globl	bf_ShowAllGlyphs
	.type	bf_ShowAllGlyphs, @function
bf_ShowAllGlyphs:
.LFB18:
	.loc 1 213 1
	.cfi_startproc
	endbr64
	pushq	%rbp
	.cfi_def_cfa_offset 16
	.cfi_offset 6, -16
	movq	%rsp, %rbp
	.cfi_def_cfa_register 6
	subq	$32, %rsp
	movq	%rdi, -24(%rbp)
	movq	%rsi, -32(%rbp)
	.loc 1 216 10
	movl	$0, -12(%rbp)
	.loc 1 216 3
	jmp	.L53
.L55:
	.loc 1 218 12
	movq	-24(%rbp), %rax
	movq	8(%rax), %rax
	.loc 1 218 24
	movl	-12(%rbp), %edx
	movslq	%edx, %rdx
	salq	$3, %rdx
	addq	%rdx, %rax
	.loc 1 218 8
	movq	(%rax), %rax
	movq	%rax, -8(%rbp)
	.loc 1 219 12
	movq	-8(%rbp), %rax
	movq	16(%rax), %rax
	.loc 1 219 8
	testq	%rax, %rax
	js	.L54
	.loc 1 221 7
	movq	-32(%rbp), %rdx
	movq	-8(%rbp), %rax
	movq	%rdx, %rsi
	movq	%rax, %rdi
	call	bg_ShowBitmap@PLT
.L54:
	.loc 1 216 35 discriminator 2
	addl	$1, -12(%rbp)
.L53:
	.loc 1 216 21 discriminator 1
	movq	-24(%rbp), %rax
	movl	16(%rax), %eax
	.loc 1 216 3 discriminator 1
	cmpl	%eax, -12(%rbp)
	jl	.L55
	.loc 1 224 1
	nop
	nop
	leave
	.cfi_def_cfa 7, 8
	ret
	.cfi_endproc
.LFE18:
	.size	bf_ShowAllGlyphs, .-bf_ShowAllGlyphs
	.globl	bf_GetIndexByEncoding
	.type	bf_GetIndexByEncoding, @function
bf_GetIndexByEncoding:
.LFB19:
	.loc 1 227 1
	.cfi_startproc
	endbr64
	pushq	%rbp
	.cfi_def_cfa_offset 16
	.cfi_offset 6, -16
	movq	%rsp, %rbp
	.cfi_def_cfa_register 6
	movq	%rdi, -24(%rbp)
	movq	%rsi, -32(%rbp)
	.loc 1 230 10
	movl	$0, -12(%rbp)
	.loc 1 230 3
	jmp	.L57
.L60:
	.loc 1 232 12
	movq	-24(%rbp), %rax
	movq	8(%rax), %rax
	.loc 1 232 24
	movl	-12(%rbp), %edx
	movslq	%edx, %rdx
	salq	$3, %rdx
	addq	%rdx, %rax
	.loc 1 232 8
	movq	(%rax), %rax
	movq	%rax, -8(%rbp)
	.loc 1 233 12
	movq	-8(%rbp), %rax
	movq	8(%rax), %rax
	.loc 1 233 8
	cmpq	%rax, -32(%rbp)
	jne	.L58
	.loc 1 234 14
	movl	-12(%rbp), %eax
	jmp	.L59
.L58:
	.loc 1 230 35 discriminator 2
	addl	$1, -12(%rbp)
.L57:
	.loc 1 230 21 discriminator 1
	movq	-24(%rbp), %rax
	movl	16(%rax), %eax
	.loc 1 230 3 discriminator 1
	cmpl	%eax, -12(%rbp)
	jl	.L60
	.loc 1 236 10
	movl	$-1, %eax
.L59:
	.loc 1 237 1
	popq	%rbp
	.cfi_def_cfa 7, 8
	ret
	.cfi_endproc
.LFE19:
	.size	bf_GetIndexByEncoding, .-bf_GetIndexByEncoding
	.section	.rodata
	.align 8
.LC2:
	.string	"CalculateMaxBBX: x=%ld, y=%ld, w=%ld, h=%ld"
	.align 8
.LC3:
	.string	"CalculateMaxBBX: Encodings x=%ld, y=%ld, w=%ld, h=%ld"
	.text
	.globl	bf_CalculateMaxBBX
	.type	bf_CalculateMaxBBX, @function
bf_CalculateMaxBBX:
.LFB20:
	.loc 1 240 1
	.cfi_startproc
	endbr64
	pushq	%rbp
	.cfi_def_cfa_offset 16
	.cfi_offset 6, -16
	movq	%rsp, %rbp
	.cfi_def_cfa_register 6
	subq	$48, %rsp
	movq	%rdi, -40(%rbp)
	.loc 1 242 7
	movl	$1, -16(%rbp)
	.loc 1 247 10
	movl	$0, -20(%rbp)
	.loc 1 247 3
	jmp	.L62
.L69:
	.loc 1 249 12
	movq	-40(%rbp), %rax
	movq	8(%rax), %rax
	.loc 1 249 24
	movl	-20(%rbp), %edx
	movslq	%edx, %rdx
	salq	$3, %rdx
	addq	%rdx, %rax
	.loc 1 249 8
	movq	(%rax), %rax
	movq	%rax, -8(%rbp)
	.loc 1 250 12
	movq	-8(%rbp), %rax
	movq	16(%rax), %rax
	.loc 1 250 8
	testq	%rax, %rax
	js	.L71
	.loc 1 252 10
	cmpl	$0, -16(%rbp)
	je	.L64
	.loc 1 254 10
	movq	-40(%rbp), %rcx
	movq	-8(%rbp), %rsi
	movq	40(%rsi), %rax
	movq	48(%rsi), %rdx
	movq	%rax, 1168(%rcx)
	movq	%rdx, 1176(%rcx)
	movq	56(%rsi), %rax
	movq	64(%rsi), %rdx
	movq	%rax, 1184(%rcx)
	movq	%rdx, 1192(%rcx)
	.loc 1 255 16
	movq	-8(%rbp), %rax
	movq	8(%rax), %rdx
	.loc 1 255 12
	movq	-40(%rbp), %rax
	movq	%rdx, 1216(%rax)
	.loc 1 256 16
	movq	-8(%rbp), %rax
	movq	8(%rax), %rdx
	.loc 1 256 12
	movq	-40(%rbp), %rax
	movq	%rdx, 1224(%rax)
	.loc 1 257 16
	movq	-8(%rbp), %rax
	movq	8(%rax), %rdx
	.loc 1 257 12
	movq	-40(%rbp), %rax
	movq	%rdx, 1200(%rax)
	.loc 1 258 16
	movq	-8(%rbp), %rax
	movq	8(%rax), %rdx
	.loc 1 258 12
	movq	-40(%rbp), %rax
	movq	%rdx, 1208(%rax)
	.loc 1 259 11
	movl	$0, -16(%rbp)
	jmp	.L63
.L64:
	.loc 1 263 12
	movq	-40(%rbp), %rax
	leaq	1168(%rax), %rdx
	movq	-8(%rbp), %rax
	movq	%rdx, %rsi
	movq	%rax, %rdi
	call	bg_Max@PLT
	movl	%eax, -12(%rbp)
	.loc 1 264 2
	cmpl	$4, -12(%rbp)
	je	.L65
	cmpl	$4, -12(%rbp)
	jg	.L63
	cmpl	$3, -12(%rbp)
	je	.L66
	cmpl	$3, -12(%rbp)
	jg	.L63
	cmpl	$1, -12(%rbp)
	je	.L67
	cmpl	$2, -12(%rbp)
	je	.L68
	jmp	.L63
.L67:
	.loc 1 267 20
	movq	-8(%rbp), %rax
	movq	8(%rax), %rdx
	.loc 1 267 16
	movq	-40(%rbp), %rax
	movq	%rdx, 1200(%rax)
	.loc 1 268 6
	jmp	.L63
.L68:
	.loc 1 270 20
	movq	-8(%rbp), %rax
	movq	8(%rax), %rdx
	.loc 1 270 16
	movq	-40(%rbp), %rax
	movq	%rdx, 1208(%rax)
	.loc 1 271 6
	jmp	.L63
.L66:
	.loc 1 273 20
	movq	-8(%rbp), %rax
	movq	8(%rax), %rdx
	.loc 1 273 16
	movq	-40(%rbp), %rax
	movq	%rdx, 1216(%rax)
	.loc 1 274 6
	jmp	.L63
.L65:
	.loc 1 276 20
	movq	-8(%rbp), %rax
	movq	8(%rax), %rdx
	.loc 1 276 16
	movq	-40(%rbp), %rax
	movq	%rdx, 1224(%rax)
	.loc 1 277 6
	jmp	.L63
.L71:
	.loc 1 279 7
	nop
.L63:
	.loc 1 247 35 discriminator 2
	addl	$1, -20(%rbp)
.L62:
	.loc 1 247 21 discriminator 1
	movq	-40(%rbp), %rax
	movl	16(%rax), %eax
	.loc 1 247 3 discriminator 1
	cmpl	%eax, -20(%rbp)
	jl	.L69
	.loc 1 283 10
	movq	-40(%rbp), %rax
	movl	1160(%rax), %eax
	.loc 1 283 6
	cmpl	$3, %eax
	jne	.L70
	.loc 1 289 15
	movq	-40(%rbp), %rax
	movq	$8, 1168(%rax)
	.loc 1 290 15
	movq	-40(%rbp), %rax
	movq	$7, 1176(%rax)
.L70:
	.loc 1 294 3
	movq	-40(%rbp), %rax
	movq	1176(%rax), %rdi
	movq	-40(%rbp), %rax
	movq	1168(%rax), %rsi
	movq	-40(%rbp), %rax
	movq	1192(%rax), %rcx
	movq	-40(%rbp), %rax
	movq	1184(%rax), %rdx
	movq	-40(%rbp), %rax
	movq	%rdi, %r9
	movq	%rsi, %r8
	leaq	.LC2(%rip), %rsi
	movq	%rax, %rdi
	movl	$0, %eax
	call	bf_Log
	.loc 1 295 3
	movq	-40(%rbp), %rax
	movq	1208(%rax), %rdi
	movq	-40(%rbp), %rax
	movq	1200(%rax), %rsi
	movq	-40(%rbp), %rax
	movq	1224(%rax), %rcx
	movq	-40(%rbp), %rax
	movq	1216(%rax), %rdx
	movq	-40(%rbp), %rax
	movq	%rdi, %r9
	movq	%rsi, %r8
	leaq	.LC3(%rip), %rsi
	movq	%rax, %rdi
	movl	$0, %eax
	call	bf_Log
	.loc 1 296 1
	nop
	leave
	.cfi_def_cfa 7, 8
	ret
	.cfi_endproc
.LFE20:
	.size	bf_CalculateMaxBBX, .-bf_CalculateMaxBBX
	.section	.rodata
	.align 8
.LC4:
	.string	"bf_CalculateMinMaxDWidth: dx_min=%ld, dx_max=%ld"
	.align 8
.LC5:
	.string	"bf_CalculateMinMaxDWidth: x_min=%ld, x_max=%ld"
	.align 8
.LC6:
	.string	"bf_CalculateMinMaxDWidth: Monospaced font."
	.text
	.globl	bf_CalculateMinMaxDWidth
	.type	bf_CalculateMinMaxDWidth, @function
bf_CalculateMinMaxDWidth:
.LFB21:
	.loc 1 299 1
	.cfi_startproc
	endbr64
	pushq	%rbp
	.cfi_def_cfa_offset 16
	.cfi_offset 6, -16
	movq	%rsp, %rbp
	.cfi_def_cfa_register 6
	subq	$32, %rsp
	movq	%rdi, -24(%rbp)
	.loc 1 303 14
	movq	-24(%rbp), %rax
	movq	$32767, 1232(%rax)
	.loc 1 304 14
	movq	-24(%rbp), %rax
	movq	$-32767, 1240(%rax)
	.loc 1 306 13
	movq	-24(%rbp), %rax
	movq	$32767, 1248(%rax)
	.loc 1 307 13
	movq	-24(%rbp), %rax
	movq	$-32767, 1256(%rax)
	.loc 1 309 10
	movl	$0, -12(%rbp)
	.loc 1 309 3
	jmp	.L73
.L78:
	.loc 1 311 12
	movq	-24(%rbp), %rax
	movq	8(%rax), %rax
	.loc 1 311 24
	movl	-12(%rbp), %edx
	movslq	%edx, %rdx
	salq	$3, %rdx
	addq	%rdx, %rax
	.loc 1 311 8
	movq	(%rax), %rax
	movq	%rax, -8(%rbp)
	.loc 1 312 12
	movq	-8(%rbp), %rax
	movq	16(%rax), %rax
	.loc 1 312 8
	testq	%rax, %rax
	js	.L74
	.loc 1 314 14
	movq	-24(%rbp), %rax
	movq	1232(%rax), %rdx
	.loc 1 314 27
	movq	-8(%rbp), %rax
	movq	24(%rax), %rax
	.loc 1 314 10
	cmpq	%rax, %rdx
	jle	.L75
	.loc 1 315 17
	movq	-8(%rbp), %rax
	movq	24(%rax), %rdx
	.loc 1 315 13
	movq	-24(%rbp), %rax
	movq	%rdx, 1232(%rax)
.L75:
	.loc 1 316 14
	movq	-24(%rbp), %rax
	movq	1240(%rax), %rdx
	.loc 1 316 27
	movq	-8(%rbp), %rax
	movq	24(%rax), %rax
	.loc 1 316 10
	cmpq	%rax, %rdx
	jge	.L76
	.loc 1 317 17
	movq	-8(%rbp), %rax
	movq	24(%rax), %rdx
	.loc 1 317 13
	movq	-24(%rbp), %rax
	movq	%rdx, 1240(%rax)
.L76:
	.loc 1 319 14
	movq	-24(%rbp), %rax
	movq	1248(%rax), %rdx
	.loc 1 319 31
	movq	-8(%rbp), %rax
	movq	56(%rax), %rax
	.loc 1 319 10
	cmpq	%rax, %rdx
	jle	.L77
	.loc 1 320 21
	movq	-8(%rbp), %rax
	movq	56(%rax), %rdx
	.loc 1 320 12
	movq	-24(%rbp), %rax
	movq	%rdx, 1248(%rax)
.L77:
	.loc 1 321 14
	movq	-24(%rbp), %rax
	movq	1256(%rax), %rdx
	.loc 1 321 31
	movq	-8(%rbp), %rax
	movq	56(%rax), %rax
	.loc 1 321 10
	cmpq	%rax, %rdx
	jge	.L74
	.loc 1 322 21
	movq	-8(%rbp), %rax
	movq	56(%rax), %rdx
	.loc 1 322 12
	movq	-24(%rbp), %rax
	movq	%rdx, 1256(%rax)
.L74:
	.loc 1 309 35 discriminator 2
	addl	$1, -12(%rbp)
.L73:
	.loc 1 309 21 discriminator 1
	movq	-24(%rbp), %rax
	movl	16(%rax), %eax
	.loc 1 309 3 discriminator 1
	cmpl	%eax, -12(%rbp)
	jl	.L78
	.loc 1 326 3
	movq	-24(%rbp), %rax
	movq	1240(%rax), %rcx
	movq	-24(%rbp), %rax
	movq	1232(%rax), %rdx
	movq	-24(%rbp), %rax
	leaq	.LC4(%rip), %rsi
	movq	%rax, %rdi
	movl	$0, %eax
	call	bf_Log
	.loc 1 327 3
	movq	-24(%rbp), %rax
	movq	1256(%rax), %rcx
	movq	-24(%rbp), %rax
	movq	1248(%rax), %rdx
	movq	-24(%rbp), %rax
	leaq	.LC5(%rip), %rsi
	movq	%rax, %rdi
	movl	$0, %eax
	call	bf_Log
	.loc 1 328 10
	movq	-24(%rbp), %rax
	movq	1232(%rax), %rdx
	.loc 1 328 24
	movq	-24(%rbp), %rax
	movq	1240(%rax), %rax
	.loc 1 328 6
	cmpq	%rax, %rdx
	jne	.L80
	.loc 1 328 38 discriminator 1
	movq	-24(%rbp), %rax
	movq	1248(%rax), %rax
	.loc 1 328 33 discriminator 1
	testq	%rax, %rax
	js	.L80
	.loc 1 330 5
	movq	-24(%rbp), %rax
	leaq	.LC6(%rip), %rsi
	movq	%rax, %rdi
	movl	$0, %eax
	call	bf_Log
.L80:
	.loc 1 333 1
	nop
	leave
	.cfi_def_cfa 7, 8
	ret
	.cfi_endproc
.LFE21:
	.size	bf_CalculateMinMaxDWidth, .-bf_CalculateMinMaxDWidth
	.globl	get_unsigned_bit_size
	.type	get_unsigned_bit_size, @function
get_unsigned_bit_size:
.LFB22:
	.loc 1 336 1
	.cfi_startproc
	endbr64
	pushq	%rbp
	.cfi_def_cfa_offset 16
	.cfi_offset 6, -16
	movq	%rsp, %rbp
	.cfi_def_cfa_register 6
	movq	%rdi, -24(%rbp)
	.loc 1 337 7
	movl	$0, -4(%rbp)
	.loc 1 338 8
	jmp	.L82
.L83:
	.loc 1 340 7
	movq	-24(%rbp), %rax
	shrq	%rax
	movq	%rax, -24(%rbp)
	.loc 1 341 6
	addl	$1, -4(%rbp)
.L82:
	.loc 1 338 8
	cmpq	$0, -24(%rbp)
	jne	.L83
	.loc 1 343 10
	movl	-4(%rbp), %eax
	.loc 1 344 1
	popq	%rbp
	.cfi_def_cfa 7, 8
	ret
	.cfi_endproc
.LFE22:
	.size	get_unsigned_bit_size, .-get_unsigned_bit_size
	.globl	get_signed_bit_size
	.type	get_signed_bit_size, @function
get_signed_bit_size:
.LFB23:
	.loc 1 347 1
	.cfi_startproc
	endbr64
	pushq	%rbp
	.cfi_def_cfa_offset 16
	.cfi_offset 6, -16
	movq	%rsp, %rbp
	.cfi_def_cfa_register 6
	subq	$8, %rsp
	movq	%rdi, -8(%rbp)
	.loc 1 348 6
	cmpq	$0, -8(%rbp)
	jns	.L86
	.loc 1 349 36
	movq	-8(%rbp), %rax
	notq	%rax
	.loc 1 349 12
	movq	%rax, %rdi
	call	get_unsigned_bit_size
	.loc 1 349 40
	addl	$1, %eax
	jmp	.L87
.L86:
	.loc 1 350 10
	movq	-8(%rbp), %rax
	movq	%rax, %rdi
	call	get_unsigned_bit_size
	.loc 1 350 35
	addl	$1, %eax
.L87:
	.loc 1 351 1
	leave
	.cfi_def_cfa 7, 8
	ret
	.cfi_endproc
.LFE23:
	.size	get_signed_bit_size, .-get_signed_bit_size
	.globl	bf_copy_bbx_and_update_shift
	.type	bf_copy_bbx_and_update_shift, @function
bf_copy_bbx_and_update_shift:
.LFB24:
	.loc 1 360 1
	.cfi_startproc
	endbr64
	pushq	%rbp
	.cfi_def_cfa_offset 16
	.cfi_offset 6, -16
	movq	%rsp, %rbp
	.cfi_def_cfa_register 6
	movq	%rdi, -8(%rbp)
	movq	%rsi, -16(%rbp)
	movq	%rdx, -24(%rbp)
	.loc 1 362 14
	movq	-8(%rbp), %rax
	movl	1160(%rax), %eax
	.loc 1 362 10
	testl	%eax, %eax
	jne	.L89
	.loc 1 364 14
	movq	-16(%rbp), %rcx
	movq	-24(%rbp), %rsi
	movq	40(%rsi), %rax
	movq	48(%rsi), %rdx
	movq	%rax, (%rcx)
	movq	%rdx, 8(%rcx)
	movq	56(%rsi), %rax
	movq	64(%rsi), %rdx
	movq	%rax, 16(%rcx)
	movq	%rdx, 24(%rcx)
	jmp	.L90
.L89:
	.loc 1 366 19
	movq	-8(%rbp), %rax
	movl	1160(%rax), %eax
	.loc 1 366 15
	cmpl	$2, %eax
	jne	.L91
	.loc 1 368 14
	movq	-16(%rbp), %rcx
	movq	-8(%rbp), %rsi
	movq	1168(%rsi), %rax
	movq	1176(%rsi), %rdx
	movq	%rax, (%rcx)
	movq	%rdx, 8(%rcx)
	movq	1184(%rsi), %rax
	movq	1192(%rsi), %rdx
	movq	%rax, 16(%rcx)
	movq	%rdx, 24(%rcx)
	.loc 1 369 16
	movq	-16(%rbp), %rax
	movq	$0, 16(%rax)
	.loc 1 370 14
	movq	-24(%rbp), %rax
	movq	56(%rax), %rax
	.loc 1 370 5
	testq	%rax, %rax
	jns	.L92
	.loc 1 371 25
	movq	-24(%rbp), %rax
	movq	56(%rax), %rdx
	.loc 1 371 16
	movq	-24(%rbp), %rax
	movq	%rdx, 72(%rax)
.L92:
	.loc 1 372 17
	movq	-16(%rbp), %rax
	movq	(%rax), %rdx
	.loc 1 372 25
	movq	-24(%rbp), %rax
	movq	24(%rax), %rax
	.loc 1 372 5
	cmpq	%rax, %rdx
	jge	.L90
	.loc 1 373 22
	movq	-24(%rbp), %rax
	movq	24(%rax), %rdx
	.loc 1 373 18
	movq	-16(%rbp), %rax
	movq	%rdx, (%rax)
	jmp	.L90
.L91:
	.loc 1 375 19
	movq	-8(%rbp), %rax
	movl	1160(%rax), %eax
	.loc 1 375 15
	cmpl	$4, %eax
	jne	.L93
	.loc 1 377 14
	movq	-16(%rbp), %rcx
	movq	-8(%rbp), %rsi
	movq	1168(%rsi), %rax
	movq	1176(%rsi), %rdx
	movq	%rax, (%rcx)
	movq	%rdx, 8(%rcx)
	movq	1184(%rsi), %rax
	movq	1192(%rsi), %rdx
	movq	%rax, 16(%rcx)
	movq	%rdx, 24(%rcx)
	.loc 1 378 16
	movq	-16(%rbp), %rax
	movq	$0, 16(%rax)
	.loc 1 379 14
	movq	-24(%rbp), %rax
	movq	56(%rax), %rax
	.loc 1 379 5
	testq	%rax, %rax
	jns	.L94
	.loc 1 380 25
	movq	-24(%rbp), %rax
	movq	56(%rax), %rdx
	.loc 1 380 16
	movq	-24(%rbp), %rax
	movq	%rdx, 72(%rax)
.L94:
	.loc 1 381 23
	movq	-16(%rbp), %rax
	movq	$5, (%rax)
	jmp	.L90
.L93:
	.loc 1 383 19
	movq	-8(%rbp), %rax
	movl	1160(%rax), %eax
	.loc 1 383 15
	cmpl	$3, %eax
	jne	.L95
	.loc 1 392 16
	movq	-16(%rbp), %rax
	movq	$8, (%rax)
	.loc 1 393 16
	movq	-16(%rbp), %rax
	movq	$8, 8(%rax)
	.loc 1 394 25
	movq	-8(%rbp), %rax
	movq	1184(%rax), %rdx
	.loc 1 394 16
	movq	-16(%rbp), %rax
	movq	%rdx, 16(%rax)
	.loc 1 395 25
	movq	-8(%rbp), %rax
	movq	1192(%rax), %rdx
	.loc 1 395 16
	movq	-16(%rbp), %rax
	movq	%rdx, 24(%rax)
	.loc 1 396 16
	movq	-16(%rbp), %rax
	movq	$0, 16(%rax)
	.loc 1 397 14
	movq	-24(%rbp), %rax
	movq	56(%rax), %rax
	.loc 1 397 5
	testq	%rax, %rax
	jns	.L90
	.loc 1 398 25
	movq	-24(%rbp), %rax
	movq	56(%rax), %rdx
	.loc 1 398 16
	movq	-24(%rbp), %rax
	movq	%rdx, 72(%rax)
	jmp	.L90
.L95:
	.loc 1 403 14
	movq	-16(%rbp), %rcx
	movq	-8(%rbp), %rsi
	movq	1168(%rsi), %rax
	movq	1176(%rsi), %rdx
	movq	%rax, (%rcx)
	movq	%rdx, 8(%rcx)
	movq	1184(%rsi), %rax
	movq	1192(%rsi), %rdx
	movq	%rax, 16(%rcx)
	movq	%rdx, 24(%rcx)
	.loc 1 404 25
	movq	-24(%rbp), %rax
	movq	40(%rax), %rdx
	.loc 1 404 16
	movq	-16(%rbp), %rax
	movq	%rdx, (%rax)
	.loc 1 405 25
	movq	-24(%rbp), %rax
	movq	56(%rax), %rdx
	.loc 1 405 16
	movq	-16(%rbp), %rax
	movq	%rdx, 16(%rax)
	.loc 1 406 16
	movq	-16(%rbp), %rax
	movq	$0, 16(%rax)
	.loc 1 407 14
	movq	-24(%rbp), %rax
	movq	56(%rax), %rax
	.loc 1 407 5
	testq	%rax, %rax
	jns	.L96
	.loc 1 410 18
	movq	-16(%rbp), %rax
	movq	(%rax), %rdx
	.loc 1 410 28
	movq	-24(%rbp), %rax
	movq	56(%rax), %rax
	.loc 1 410 18
	subq	%rax, %rdx
	movq	-16(%rbp), %rax
	movq	%rdx, (%rax)
	.loc 1 411 25
	movq	-24(%rbp), %rax
	movq	56(%rax), %rdx
	.loc 1 411 16
	movq	-24(%rbp), %rax
	movq	%rdx, 72(%rax)
	jmp	.L97
.L96:
	.loc 1 416 18
	movq	-16(%rbp), %rax
	movq	(%rax), %rdx
	.loc 1 416 28
	movq	-24(%rbp), %rax
	movq	56(%rax), %rax
	.loc 1 416 18
	addq	%rax, %rdx
	movq	-16(%rbp), %rax
	movq	%rdx, (%rax)
.L97:
	.loc 1 419 17
	movq	-16(%rbp), %rax
	movq	(%rax), %rdx
	.loc 1 419 25
	movq	-24(%rbp), %rax
	movq	24(%rax), %rax
	.loc 1 419 5
	cmpq	%rax, %rdx
	jge	.L90
	.loc 1 420 22
	movq	-24(%rbp), %rax
	movq	24(%rax), %rdx
	.loc 1 420 18
	movq	-16(%rbp), %rax
	movq	%rdx, (%rax)
.L90:
	.loc 1 423 35
	movq	-16(%rbp), %rax
	movq	(%rax), %rdx
	.loc 1 423 48
	movq	-24(%rbp), %rax
	movq	40(%rax), %rax
	.loc 1 423 39
	subq	%rax, %rdx
	.loc 1 423 23
	movq	-24(%rbp), %rax
	movq	%rdx, 152(%rax)
	.loc 1 424 1
	nop
	popq	%rbp
	.cfi_def_cfa 7, 8
	ret
	.cfi_endproc
.LFE24:
	.size	bf_copy_bbx_and_update_shift, .-bf_copy_bbx_and_update_shift
	.section	.rodata
	.align 8
.LC7:
	.string	"bf_CalculateMaxBitFieldSize: bbx.x=%d, bbx.y=%d, bbx.w=%d, bbx.h=%d, dwidth=%d"
	.text
	.globl	bf_CalculateMaxBitFieldSize
	.type	bf_CalculateMaxBitFieldSize, @function
bf_CalculateMaxBitFieldSize:
.LFB25:
	.loc 1 427 1
	.cfi_startproc
	endbr64
	pushq	%rbp
	.cfi_def_cfa_offset 16
	.cfi_offset 6, -16
	movq	%rsp, %rbp
	.cfi_def_cfa_register 6
	subq	$80, %rsp
	movq	%rdi, -72(%rbp)
	.loc 1 427 1
	movq	%fs:40, %rax
	movq	%rax, -8(%rbp)
	xorl	%eax, %eax
	.loc 1 432 26
	movq	-72(%rbp), %rax
	movl	$0, 1264(%rax)
	.loc 1 433 26
	movq	-72(%rbp), %rax
	movl	$0, 1268(%rax)
	.loc 1 434 26
	movq	-72(%rbp), %rax
	movl	$0, 1272(%rax)
	.loc 1 435 26
	movq	-72(%rbp), %rax
	movl	$0, 1276(%rax)
	.loc 1 436 23
	movq	-72(%rbp), %rax
	movl	$0, 1280(%rax)
	.loc 1 437 10
	movl	$0, -64(%rbp)
	.loc 1 437 3
	jmp	.L99
.L108:
	.loc 1 439 12
	movq	-72(%rbp), %rax
	movq	8(%rax), %rax
	.loc 1 439 24
	movl	-64(%rbp), %edx
	movslq	%edx, %rdx
	salq	$3, %rdx
	addq	%rdx, %rax
	.loc 1 439 8
	movq	(%rax), %rax
	movq	%rax, -56(%rbp)
	.loc 1 440 12
	movq	-56(%rbp), %rax
	movq	16(%rax), %rax
	.loc 1 440 8
	testq	%rax, %rax
	js	.L100
	.loc 1 443 7
	movq	-56(%rbp), %rdx
	leaq	-48(%rbp), %rcx
	movq	-72(%rbp), %rax
	movq	%rcx, %rsi
	movq	%rax, %rdi
	call	bf_copy_bbx_and_update_shift
	.loc 1 495 43
	movq	-48(%rbp), %rax
	.loc 1 495 12
	movq	%rax, %rdi
	call	get_unsigned_bit_size
	movl	%eax, -60(%rbp)
	.loc 1 496 14
	movq	-72(%rbp), %rax
	movl	1272(%rax), %eax
	.loc 1 496 10
	cmpl	%eax, -60(%rbp)
	jle	.L101
	.loc 1 497 25
	movq	-72(%rbp), %rax
	movl	-60(%rbp), %edx
	movl	%edx, 1272(%rax)
.L101:
	.loc 1 499 43
	movq	-40(%rbp), %rax
	.loc 1 499 12
	movq	%rax, %rdi
	call	get_unsigned_bit_size
	movl	%eax, -60(%rbp)
	.loc 1 500 14
	movq	-72(%rbp), %rax
	movl	1276(%rax), %eax
	.loc 1 500 10
	cmpl	%eax, -60(%rbp)
	jle	.L102
	.loc 1 501 25
	movq	-72(%rbp), %rax
	movl	-60(%rbp), %edx
	movl	%edx, 1276(%rax)
.L102:
	.loc 1 504 12
	movq	-32(%rbp), %rax
	movq	%rax, %rdi
	call	get_signed_bit_size
	movl	%eax, -60(%rbp)
	.loc 1 505 14
	movq	-72(%rbp), %rax
	movl	1264(%rax), %eax
	.loc 1 505 10
	cmpl	%eax, -60(%rbp)
	jle	.L103
	.loc 1 506 25
	movq	-72(%rbp), %rax
	movl	-60(%rbp), %edx
	movl	%edx, 1264(%rax)
.L103:
	.loc 1 509 12
	movq	-24(%rbp), %rax
	movq	%rax, %rdi
	call	get_signed_bit_size
	movl	%eax, -60(%rbp)
	.loc 1 510 14
	movq	-72(%rbp), %rax
	movl	1268(%rax), %eax
	.loc 1 510 10
	cmpl	%eax, -60(%rbp)
	jle	.L104
	.loc 1 511 25
	movq	-72(%rbp), %rax
	movl	-60(%rbp), %edx
	movl	%edx, 1268(%rax)
.L104:
	.loc 1 513 14
	movq	-72(%rbp), %rax
	movl	1160(%rax), %eax
	.loc 1 513 10
	testl	%eax, %eax
	jne	.L105
	.loc 1 515 7
	movq	-56(%rbp), %rax
	movq	24(%rax), %rax
	movq	%rax, %rdi
	call	get_signed_bit_size
	movl	%eax, -60(%rbp)
	jmp	.L106
.L105:
	.loc 1 517 19
	movq	-72(%rbp), %rax
	movl	1160(%rax), %eax
	.loc 1 517 15
	cmpl	$2, %eax
	jne	.L107
	.loc 1 519 7
	movq	-48(%rbp), %rax
	movq	%rax, %rdi
	call	get_signed_bit_size
	movl	%eax, -60(%rbp)
	jmp	.L106
.L107:
	.loc 1 523 7
	movq	-48(%rbp), %rax
	movq	%rax, %rdi
	call	get_signed_bit_size
	movl	%eax, -60(%rbp)
.L106:
	.loc 1 525 14
	movq	-72(%rbp), %rax
	movl	1280(%rax), %eax
	.loc 1 525 10
	cmpl	%eax, -60(%rbp)
	jle	.L100
	.loc 1 526 22
	movq	-72(%rbp), %rax
	movl	-60(%rbp), %edx
	movl	%edx, 1280(%rax)
.L100:
	.loc 1 437 35 discriminator 2
	addl	$1, -64(%rbp)
.L99:
	.loc 1 437 21 discriminator 1
	movq	-72(%rbp), %rax
	movl	16(%rax), %eax
	.loc 1 437 3 discriminator 1
	cmpl	%eax, -64(%rbp)
	jl	.L108
	.loc 1 530 3
	movq	-72(%rbp), %rax
	movl	1280(%rax), %esi
	movq	-72(%rbp), %rax
	movl	1276(%rax), %r8d
	movq	-72(%rbp), %rax
	movl	1272(%rax), %edi
	movq	-72(%rbp), %rax
	movl	1268(%rax), %ecx
	movq	-72(%rbp), %rax
	movl	1264(%rax), %edx
	movq	-72(%rbp), %rax
	subq	$8, %rsp
	pushq	%rsi
	movl	%r8d, %r9d
	movl	%edi, %r8d
	leaq	.LC7(%rip), %rsi
	movq	%rax, %rdi
	movl	$0, %eax
	call	bf_Log
	addq	$16, %rsp
	.loc 1 533 1
	nop
	movq	-8(%rbp), %rax
	xorq	%fs:40, %rax
	je	.L109
	call	__stack_chk_fail@PLT
.L109:
	leave
	.cfi_def_cfa 7, 8
	ret
	.cfi_endproc
.LFE25:
	.size	bf_CalculateMaxBitFieldSize, .-bf_CalculateMaxBitFieldSize
	.section	.rodata
	.align 8
.LC8:
	.string	"Monospace Statistics: Max width extention %ld, average width extention %ld.%ld"
	.text
	.globl	bf_ShowMonospaceStatistics
	.type	bf_ShowMonospaceStatistics, @function
bf_ShowMonospaceStatistics:
.LFB26:
	.loc 1 536 1
	.cfi_startproc
	endbr64
	pushq	%rbp
	.cfi_def_cfa_offset 16
	.cfi_offset 6, -16
	movq	%rsp, %rbp
	.cfi_def_cfa_register 6
	subq	$64, %rsp
	movq	%rdi, -56(%rbp)
	.loc 1 539 8
	movq	$0, -32(%rbp)
	.loc 1 540 8
	movq	$0, -24(%rbp)
	.loc 1 541 8
	movq	$0, -16(%rbp)
	.loc 1 542 10
	movl	$0, -36(%rbp)
	.loc 1 542 3
	jmp	.L111
.L114:
	.loc 1 544 12
	movq	-56(%rbp), %rax
	movq	8(%rax), %rax
	.loc 1 544 24
	movl	-36(%rbp), %edx
	movslq	%edx, %rdx
	salq	$3, %rdx
	addq	%rdx, %rax
	.loc 1 544 8
	movq	(%rax), %rax
	movq	%rax, -8(%rbp)
	.loc 1 545 12
	movq	-8(%rbp), %rax
	movq	16(%rax), %rax
	.loc 1 545 8
	testq	%rax, %rax
	js	.L112
	.loc 1 547 20
	movq	-8(%rbp), %rax
	movq	152(%rax), %rax
	.loc 1 547 10
	cmpq	%rax, -24(%rbp)
	jge	.L113
	.loc 1 548 6
	movq	-8(%rbp), %rax
	movq	152(%rax), %rax
	movq	%rax, -24(%rbp)
.L113:
	.loc 1 549 16
	movq	-8(%rbp), %rax
	movq	152(%rax), %rax
	.loc 1 549 11
	addq	%rax, -16(%rbp)
	.loc 1 550 10
	addq	$1, -32(%rbp)
.L112:
	.loc 1 542 35 discriminator 2
	addl	$1, -36(%rbp)
.L111:
	.loc 1 542 21 discriminator 1
	movq	-56(%rbp), %rax
	movl	16(%rax), %eax
	.loc 1 542 3 discriminator 1
	cmpl	%eax, -36(%rbp)
	jl	.L114
	.loc 1 553 6
	cmpq	$0, -32(%rbp)
	jne	.L115
	.loc 1 554 8
	addq	$1, -32(%rbp)
.L115:
	.loc 1 555 114
	movq	-16(%rbp), %rdx
	movq	%rdx, %rax
	salq	$2, %rax
	addq	%rdx, %rax
	addq	%rax, %rax
	.loc 1 555 117
	cqto
	idivq	-32(%rbp)
	movq	%rax, %rsi
	.loc 1 555 3
	movabsq	$7378697629483820647, %rdx
	movq	%rsi, %rax
	imulq	%rdx
	sarq	$2, %rdx
	movq	%rsi, %rax
	sarq	$63, %rax
	movq	%rdx, %rcx
	subq	%rax, %rcx
	movq	%rcx, %rax
	salq	$2, %rax
	addq	%rcx, %rax
	addq	%rax, %rax
	subq	%rax, %rsi
	movq	%rsi, %rcx
	movq	-16(%rbp), %rax
	cqto
	idivq	-32(%rbp)
	movq	%rax, %rsi
	movq	-24(%rbp), %rdx
	movq	-56(%rbp), %rax
	movq	%rcx, %r8
	movq	%rsi, %rcx
	leaq	.LC8(%rip), %rsi
	movq	%rax, %rdi
	movl	$0, %eax
	call	bf_Log
	.loc 1 575 1
	nop
	leave
	.cfi_def_cfa 7, 8
	ret
	.cfi_endproc
.LFE26:
	.size	bf_ShowMonospaceStatistics, .-bf_ShowMonospaceStatistics
	.section	.rodata
.LC9:
	.string	"/*\n"
.LC10:
	.string	"  Fontname: %s\n"
.LC11:
	.string	"  Copyright: %s\n"
.LC12:
	.string	"  Glyphs: %d/%d\n"
.LC13:
	.string	"  BBX Build Mode: %d\n"
.LC14:
	.string	"*/\n"
.LC15:
	.string	"#include \"ucg.h\"\n"
	.align 8
.LC16:
	.string	"const ucg_fntpgm_uint8_t %s[%d] UCG_FONT_SECTION(\"%s\") = {\n"
.LC17:
	.string	"  "
.LC18:
	.string	"%d"
.LC19:
	.string	"\n%s"
.LC20:
	.string	"};\n"
	.text
	.globl	bf_WriteUCGCByFP
	.type	bf_WriteUCGCByFP, @function
bf_WriteUCGCByFP:
.LFB27:
	.loc 1 579 1
	.cfi_startproc
	endbr64
	pushq	%rbp
	.cfi_def_cfa_offset 16
	.cfi_offset 6, -16
	movq	%rsp, %rbp
	.cfi_def_cfa_register 6
	subq	$48, %rsp
	movq	%rdi, -24(%rbp)
	movq	%rsi, -32(%rbp)
	movq	%rdx, -40(%rbp)
	movq	%rcx, -48(%rbp)
	.loc 1 581 7
	movl	$16, -4(%rbp)
	.loc 1 583 3
	movq	-32(%rbp), %rax
	movq	%rax, %rcx
	movl	$3, %edx
	movl	$1, %esi
	leaq	.LC9(%rip), %rdi
	call	fwrite@PLT
	.loc 1 584 3
	movq	-24(%rbp), %rax
	movq	1136(%rax), %rdx
	movq	-32(%rbp), %rax
	leaq	.LC10(%rip), %rsi
	movq	%rax, %rdi
	movl	$0, %eax
	call	fprintf@PLT
	.loc 1 585 3
	movq	-24(%rbp), %rax
	movq	1144(%rax), %rdx
	movq	-32(%rbp), %rax
	leaq	.LC11(%rip), %rsi
	movq	%rax, %rdi
	movl	$0, %eax
	call	fprintf@PLT
	.loc 1 586 3
	movq	-24(%rbp), %rax
	movl	16(%rax), %edx
	.loc 1 586 47
	movq	-24(%rbp), %rax
	movq	1152(%rax), %rax
	.loc 1 586 3
	movl	%eax, %esi
	movq	-32(%rbp), %rax
	movl	%edx, %ecx
	movl	%esi, %edx
	leaq	.LC12(%rip), %rsi
	movq	%rax, %rdi
	movl	$0, %eax
	call	fprintf@PLT
	.loc 1 587 3
	movq	-24(%rbp), %rax
	movl	1160(%rax), %edx
	movq	-32(%rbp), %rax
	leaq	.LC13(%rip), %rsi
	movq	%rax, %rdi
	movl	$0, %eax
	call	fprintf@PLT
	.loc 1 588 3
	movq	-32(%rbp), %rax
	movq	%rax, %rcx
	movl	$3, %edx
	movl	$1, %esi
	leaq	.LC14(%rip), %rdi
	call	fwrite@PLT
	.loc 1 589 3
	movq	-32(%rbp), %rax
	movq	%rax, %rcx
	movl	$17, %edx
	movl	$1, %esi
	leaq	.LC15(%rip), %rdi
	call	fwrite@PLT
	.loc 1 590 3
	movq	-24(%rbp), %rax
	movl	1300(%rax), %ecx
	movq	-40(%rbp), %rsi
	movq	-40(%rbp), %rdx
	movq	-32(%rbp), %rax
	movq	%rsi, %r8
	leaq	.LC16(%rip), %rsi
	movq	%rax, %rdi
	movl	$0, %eax
	call	fprintf@PLT
	.loc 1 591 3
	movq	-32(%rbp), %rax
	movq	%rax, %rcx
	movl	$2, %edx
	movl	$1, %esi
	leaq	.LC17(%rip), %rdi
	call	fwrite@PLT
	.loc 1 593 10
	movl	$0, -8(%rbp)
	.loc 1 593 3
	jmp	.L117
.L120:
	.loc 1 595 29
	movq	-24(%rbp), %rax
	movq	1288(%rax), %rdx
	.loc 1 595 42
	movl	-8(%rbp), %eax
	cltq
	addq	%rdx, %rax
	movzbl	(%rax), %eax
	.loc 1 595 5
	movzbl	%al, %edx
	movq	-32(%rbp), %rax
	leaq	.LC18(%rip), %rsi
	movq	%rax, %rdi
	movl	$0, %eax
	call	fprintf@PLT
	.loc 1 596 11
	movl	-8(%rbp), %eax
	leal	1(%rax), %edx
	.loc 1 596 19
	movq	-24(%rbp), %rax
	movl	1300(%rax), %eax
	.loc 1 596 8
	cmpl	%eax, %edx
	je	.L118
	.loc 1 597 7
	movq	-32(%rbp), %rax
	movq	%rax, %rsi
	movl	$44, %edi
	call	fputc@PLT
.L118:
	.loc 1 598 12
	movl	-8(%rbp), %eax
	addl	$1, %eax
	.loc 1 598 16
	cltd
	idivl	-4(%rbp)
	movl	%edx, %eax
	.loc 1 598 8
	testl	%eax, %eax
	jne	.L119
	.loc 1 599 7
	movq	-48(%rbp), %rdx
	movq	-32(%rbp), %rax
	leaq	.LC19(%rip), %rsi
	movq	%rax, %rdi
	movl	$0, %eax
	call	fprintf@PLT
.L119:
	.loc 1 593 36 discriminator 2
	addl	$1, -8(%rbp)
.L117:
	.loc 1 593 21 discriminator 1
	movq	-24(%rbp), %rax
	movl	1300(%rax), %eax
	.loc 1 593 3 discriminator 1
	cmpl	%eax, -8(%rbp)
	jl	.L120
	.loc 1 602 3
	movq	-32(%rbp), %rax
	movq	%rax, %rcx
	movl	$3, %edx
	movl	$1, %esi
	leaq	.LC20(%rip), %rdi
	call	fwrite@PLT
	.loc 1 603 10
	movl	$1, %eax
	.loc 1 604 1
	leave
	.cfi_def_cfa 7, 8
	ret
	.cfi_endproc
.LFE27:
	.size	bf_WriteUCGCByFP, .-bf_WriteUCGCByFP
	.section	.rodata
.LC21:
	.string	"#ifdef U8G2_USE_LARGE_FONTS\n"
	.align 8
.LC22:
	.string	"const uint8_t %s[%d] U8X8_FONT_SECTION(\"%s\") = \n"
	.align 8
.LC23:
	.string	"const uint8_t %s[%d] U8G2_FONT_SECTION(\"%s\") = \n"
.LC24:
	.string	"%s\""
.LC25:
	.string	"\\%o"
.LC26:
	.string	"\"\n%s\""
.LC27:
	.string	"\";\n"
	.align 8
.LC28:
	.string	"#endif /* U8G2_USE_LARGE_FONTS */\n"
	.text
	.globl	bf_WriteU8G2CByFP
	.type	bf_WriteU8G2CByFP, @function
bf_WriteU8G2CByFP:
.LFB28:
	.loc 1 607 1
	.cfi_startproc
	endbr64
	pushq	%rbp
	.cfi_def_cfa_offset 16
	.cfi_offset 6, -16
	movq	%rsp, %rbp
	.cfi_def_cfa_register 6
	subq	$48, %rsp
	movq	%rdi, -24(%rbp)
	movq	%rsi, -32(%rbp)
	movq	%rdx, -40(%rbp)
	movq	%rcx, -48(%rbp)
	.loc 1 609 7
	movl	$32, -4(%rbp)
	.loc 1 612 3
	movq	-32(%rbp), %rax
	movq	%rax, %rcx
	movl	$3, %edx
	movl	$1, %esi
	leaq	.LC9(%rip), %rdi
	call	fwrite@PLT
	.loc 1 613 3
	movq	-24(%rbp), %rax
	movq	1136(%rax), %rdx
	movq	-32(%rbp), %rax
	leaq	.LC10(%rip), %rsi
	movq	%rax, %rdi
	movl	$0, %eax
	call	fprintf@PLT
	.loc 1 614 3
	movq	-24(%rbp), %rax
	movq	1144(%rax), %rdx
	movq	-32(%rbp), %rax
	leaq	.LC11(%rip), %rsi
	movq	%rax, %rdi
	movl	$0, %eax
	call	fprintf@PLT
	.loc 1 615 3
	movq	-24(%rbp), %rax
	movl	16(%rax), %edx
	.loc 1 615 47
	movq	-24(%rbp), %rax
	movq	1152(%rax), %rax
	.loc 1 615 3
	movl	%eax, %esi
	movq	-32(%rbp), %rax
	movl	%edx, %ecx
	movl	%esi, %edx
	leaq	.LC12(%rip), %rsi
	movq	%rax, %rdi
	movl	$0, %eax
	call	fprintf@PLT
	.loc 1 616 3
	movq	-24(%rbp), %rax
	movl	1160(%rax), %edx
	movq	-32(%rbp), %rax
	leaq	.LC13(%rip), %rsi
	movq	%rax, %rdi
	movl	$0, %eax
	call	fprintf@PLT
	.loc 1 617 3
	movq	-32(%rbp), %rax
	movq	%rax, %rcx
	movl	$3, %edx
	movl	$1, %esi
	leaq	.LC14(%rip), %rdi
	call	fwrite@PLT
	.loc 1 619 10
	movq	-24(%rbp), %rax
	movq	1288(%rax), %rdx
	.loc 1 619 26
	movq	-24(%rbp), %rax
	movl	1300(%rax), %eax
	cltq
	.loc 1 619 23
	subq	$1, %rax
	addq	%rdx, %rax
	movzbl	(%rax), %eax
	.loc 1 619 6
	testb	%al, %al
	jne	.L123
	.loc 1 620 12
	movl	$0, -8(%rbp)
	jmp	.L124
.L123:
	.loc 1 622 12
	movl	$1, -8(%rbp)
.L124:
	.loc 1 624 10
	movq	-24(%rbp), %rax
	movl	1300(%rax), %eax
	.loc 1 624 22
	leal	-1(%rax), %edx
	.loc 1 624 24
	movl	-8(%rbp), %eax
	addl	%edx, %eax
	.loc 1 624 6
	cmpl	$32760, %eax
	jle	.L125
	.loc 1 626 5
	movq	-32(%rbp), %rax
	movq	%rax, %rcx
	movl	$28, %edx
	movl	$1, %esi
	leaq	.LC21(%rip), %rdi
	call	fwrite@PLT
.L125:
	.loc 1 629 10
	movq	-24(%rbp), %rax
	movl	1160(%rax), %eax
	.loc 1 629 6
	cmpl	$3, %eax
	jne	.L126
	.loc 1 632 88
	movq	-24(%rbp), %rax
	movl	1300(%rax), %edx
	.loc 1 632 5
	movl	-8(%rbp), %eax
	leal	(%rdx,%rax), %ecx
	movq	-40(%rbp), %rsi
	movq	-40(%rbp), %rdx
	movq	-32(%rbp), %rax
	movq	%rsi, %r8
	leaq	.LC22(%rip), %rsi
	movq	%rax, %rdi
	movl	$0, %eax
	call	fprintf@PLT
	jmp	.L127
.L126:
	.loc 1 637 88
	movq	-24(%rbp), %rax
	movl	1300(%rax), %edx
	.loc 1 637 5
	movl	-8(%rbp), %eax
	leal	(%rdx,%rax), %ecx
	movq	-40(%rbp), %rsi
	movq	-40(%rbp), %rdx
	movq	-32(%rbp), %rax
	movq	%rsi, %r8
	leaq	.LC23(%rip), %rsi
	movq	%rax, %rdi
	movl	$0, %eax
	call	fprintf@PLT
.L127:
	.loc 1 639 3
	movq	-48(%rbp), %rdx
	movq	-32(%rbp), %rax
	leaq	.LC24(%rip), %rsi
	movq	%rax, %rdi
	movl	$0, %eax
	call	fprintf@PLT
	.loc 1 641 10
	movl	$0, -12(%rbp)
	.loc 1 641 3
	jmp	.L128
.L134:
	.loc 1 643 12
	movq	-24(%rbp), %rax
	movq	1288(%rax), %rdx
	.loc 1 643 25
	movl	-12(%rbp), %eax
	cltq
	addq	%rdx, %rax
	movzbl	(%rax), %eax
	.loc 1 643 8
	cmpb	$31, %al
	jbe	.L129
	.loc 1 643 39 discriminator 1
	movq	-24(%rbp), %rax
	movq	1288(%rax), %rdx
	.loc 1 643 52 discriminator 1
	movl	-12(%rbp), %eax
	cltq
	addq	%rdx, %rax
	movzbl	(%rax), %eax
	.loc 1 643 34 discriminator 1
	cmpb	$34, %al
	je	.L129
	.loc 1 643 69 discriminator 2
	movq	-24(%rbp), %rax
	movq	1288(%rax), %rdx
	.loc 1 643 82 discriminator 2
	movl	-12(%rbp), %eax
	cltq
	addq	%rdx, %rax
	movzbl	(%rax), %eax
	.loc 1 643 64 discriminator 2
	cmpb	$92, %al
	je	.L129
	.loc 1 643 100 discriminator 3
	movq	-24(%rbp), %rax
	movq	1288(%rax), %rdx
	.loc 1 643 113 discriminator 3
	movl	-12(%rbp), %eax
	cltq
	addq	%rdx, %rax
	movzbl	(%rax), %eax
	.loc 1 643 95 discriminator 3
	cmpb	$63, %al
	je	.L129
	.loc 1 643 131 discriminator 4
	movq	-24(%rbp), %rax
	movq	1288(%rax), %rdx
	.loc 1 643 144 discriminator 4
	movl	-12(%rbp), %eax
	cltq
	addq	%rdx, %rax
	movzbl	(%rax), %eax
	.loc 1 643 124 discriminator 4
	cmpb	$47, %al
	jbe	.L130
	.loc 1 643 160 discriminator 5
	movq	-24(%rbp), %rax
	movq	1288(%rax), %rdx
	.loc 1 643 173 discriminator 5
	movl	-12(%rbp), %eax
	cltq
	addq	%rdx, %rax
	movzbl	(%rax), %eax
	.loc 1 643 155 discriminator 5
	cmpb	$57, %al
	ja	.L130
.L129:
	.loc 1 645 33
	movq	-24(%rbp), %rax
	movq	1288(%rax), %rdx
	.loc 1 645 46
	movl	-12(%rbp), %eax
	cltq
	addq	%rdx, %rax
	movzbl	(%rax), %eax
	.loc 1 645 7
	movzbl	%al, %edx
	movq	-32(%rbp), %rax
	leaq	.LC25(%rip), %rsi
	movq	%rax, %rdi
	movl	$0, %eax
	call	fprintf@PLT
	jmp	.L131
.L130:
	.loc 1 648 17
	movq	-24(%rbp), %rax
	movq	1288(%rax), %rdx
	.loc 1 648 30
	movl	-12(%rbp), %eax
	cltq
	addq	%rdx, %rax
	movzbl	(%rax), %eax
	.loc 1 648 13
	cmpb	$126, %al
	ja	.L132
	.loc 1 650 31
	movq	-24(%rbp), %rax
	movq	1288(%rax), %rdx
	.loc 1 650 44
	movl	-12(%rbp), %eax
	cltq
	addq	%rdx, %rax
	movzbl	(%rax), %eax
	.loc 1 650 7
	movzbl	%al, %eax
	movq	-32(%rbp), %rdx
	movq	%rdx, %rsi
	movl	%eax, %edi
	call	fputc@PLT
	jmp	.L131
.L132:
	.loc 1 654 33
	movq	-24(%rbp), %rax
	movq	1288(%rax), %rdx
	.loc 1 654 46
	movl	-12(%rbp), %eax
	cltq
	addq	%rdx, %rax
	movzbl	(%rax), %eax
	.loc 1 654 7
	movzbl	%al, %edx
	movq	-32(%rbp), %rax
	leaq	.LC25(%rip), %rsi
	movq	%rax, %rdi
	movl	$0, %eax
	call	fprintf@PLT
.L131:
	.loc 1 656 12
	movl	-12(%rbp), %eax
	addl	$1, %eax
	.loc 1 656 16
	cltd
	idivl	-4(%rbp)
	movl	%edx, %eax
	.loc 1 656 8
	testl	%eax, %eax
	jne	.L133
	.loc 1 657 7
	movq	-48(%rbp), %rdx
	movq	-32(%rbp), %rax
	leaq	.LC26(%rip), %rsi
	movq	%rax, %rdi
	movl	$0, %eax
	call	fprintf@PLT
.L133:
	.loc 1 641 45 discriminator 2
	addl	$1, -12(%rbp)
.L128:
	.loc 1 641 21 discriminator 1
	movq	-24(%rbp), %rax
	movl	1300(%rax), %eax
	.loc 1 641 33 discriminator 1
	leal	-1(%rax), %edx
	.loc 1 641 35 discriminator 1
	movl	-8(%rbp), %eax
	addl	%edx, %eax
	.loc 1 641 3 discriminator 1
	cmpl	%eax, -12(%rbp)
	jl	.L134
	.loc 1 660 3
	movq	-32(%rbp), %rax
	movq	%rax, %rcx
	movl	$3, %edx
	movl	$1, %esi
	leaq	.LC27(%rip), %rdi
	call	fwrite@PLT
	.loc 1 662 10
	movq	-24(%rbp), %rax
	movl	1300(%rax), %eax
	.loc 1 662 22
	leal	-1(%rax), %edx
	.loc 1 662 24
	movl	-8(%rbp), %eax
	addl	%edx, %eax
	.loc 1 662 6
	cmpl	$32760, %eax
	jle	.L135
	.loc 1 664 5
	movq	-32(%rbp), %rax
	movq	%rax, %rcx
	movl	$34, %edx
	movl	$1, %esi
	leaq	.LC28(%rip), %rdi
	call	fwrite@PLT
.L135:
	.loc 1 667 10
	movl	$1, %eax
	.loc 1 668 1
	leave
	.cfi_def_cfa 7, 8
	ret
	.cfi_endproc
.LFE28:
	.size	bf_WriteU8G2CByFP, .-bf_WriteU8G2CByFP
	.section	.rodata
.LC29:
	.string	"wb"
	.align 8
.LC30:
	.string	"bf_WriteUCGCByFilename: Open error '%s'"
	.align 8
.LC31:
	.string	"bf_WriteUCGCByFilename: Write file '%s'"
	.text
	.globl	bf_WriteUCGCByFilename
	.type	bf_WriteUCGCByFilename, @function
bf_WriteUCGCByFilename:
.LFB29:
	.loc 1 671 1
	.cfi_startproc
	endbr64
	pushq	%rbp
	.cfi_def_cfa_offset 16
	.cfi_offset 6, -16
	movq	%rsp, %rbp
	.cfi_def_cfa_register 6
	subq	$48, %rsp
	movq	%rdi, -24(%rbp)
	movq	%rsi, -32(%rbp)
	movq	%rdx, -40(%rbp)
	movq	%rcx, -48(%rbp)
	.loc 1 673 8
	movq	-32(%rbp), %rax
	leaq	.LC29(%rip), %rsi
	movq	%rax, %rdi
	call	fopen@PLT
	movq	%rax, -8(%rbp)
	.loc 1 674 6
	cmpq	$0, -8(%rbp)
	jne	.L138
	.loc 1 676 5
	movq	-32(%rbp), %rdx
	movq	-24(%rbp), %rax
	leaq	.LC30(%rip), %rsi
	movq	%rax, %rdi
	movl	$0, %eax
	call	bf_Log
	.loc 1 677 12
	movl	$0, %eax
	jmp	.L139
.L138:
	.loc 1 680 3
	movq	-48(%rbp), %rcx
	movq	-40(%rbp), %rdx
	movq	-8(%rbp), %rsi
	movq	-24(%rbp), %rax
	movq	%rax, %rdi
	call	bf_WriteUCGCByFP
	.loc 1 681 3
	movq	-32(%rbp), %rdx
	movq	-24(%rbp), %rax
	leaq	.LC31(%rip), %rsi
	movq	%rax, %rdi
	movl	$0, %eax
	call	bf_Log
	.loc 1 683 3
	movq	-8(%rbp), %rax
	movq	%rax, %rdi
	call	fclose@PLT
	.loc 1 684 10
	movl	$1, %eax
.L139:
	.loc 1 685 1
	leave
	.cfi_def_cfa 7, 8
	ret
	.cfi_endproc
.LFE29:
	.size	bf_WriteUCGCByFilename, .-bf_WriteUCGCByFilename
	.section	.rodata
	.align 8
.LC32:
	.string	"bf_WriteU8G2CByFilename: Open error '%s'"
	.align 8
.LC33:
	.string	"bf_WriteU8G2CByFilename: Write file '%s'"
	.text
	.globl	bf_WriteU8G2CByFilename
	.type	bf_WriteU8G2CByFilename, @function
bf_WriteU8G2CByFilename:
.LFB30:
	.loc 1 689 1
	.cfi_startproc
	endbr64
	pushq	%rbp
	.cfi_def_cfa_offset 16
	.cfi_offset 6, -16
	movq	%rsp, %rbp
	.cfi_def_cfa_register 6
	subq	$48, %rsp
	movq	%rdi, -24(%rbp)
	movq	%rsi, -32(%rbp)
	movq	%rdx, -40(%rbp)
	movq	%rcx, -48(%rbp)
	.loc 1 691 8
	movq	-32(%rbp), %rax
	leaq	.LC29(%rip), %rsi
	movq	%rax, %rdi
	call	fopen@PLT
	movq	%rax, -8(%rbp)
	.loc 1 692 6
	cmpq	$0, -8(%rbp)
	jne	.L141
	.loc 1 694 5
	movq	-32(%rbp), %rdx
	movq	-24(%rbp), %rax
	leaq	.LC32(%rip), %rsi
	movq	%rax, %rdi
	movl	$0, %eax
	call	bf_Log
	.loc 1 695 12
	movl	$0, %eax
	jmp	.L142
.L141:
	.loc 1 698 3
	movq	-48(%rbp), %rcx
	movq	-40(%rbp), %rdx
	movq	-8(%rbp), %rsi
	movq	-24(%rbp), %rax
	movq	%rax, %rdi
	call	bf_WriteU8G2CByFP
	.loc 1 699 3
	movq	-32(%rbp), %rdx
	movq	-24(%rbp), %rax
	leaq	.LC33(%rip), %rsi
	movq	%rax, %rdi
	movl	$0, %eax
	call	bf_Log
	.loc 1 701 3
	movq	-8(%rbp), %rax
	movq	%rax, %rdi
	call	fclose@PLT
	.loc 1 702 10
	movl	$1, %eax
.L142:
	.loc 1 703 1
	leave
	.cfi_def_cfa 7, 8
	ret
	.cfi_endproc
.LFE30:
	.size	bf_WriteU8G2CByFilename, .-bf_WriteU8G2CByFilename
	.globl	bf_OpenFromFile
	.type	bf_OpenFromFile, @function
bf_OpenFromFile:
.LFB31:
	.loc 1 711 1
	.cfi_startproc
	endbr64
	pushq	%rbp
	.cfi_def_cfa_offset 16
	.cfi_offset 6, -16
	movq	%rsp, %rbp
	.cfi_def_cfa_register 6
	subq	$64, %rsp
	movq	%rdi, -24(%rbp)
	movl	%esi, -28(%rbp)
	movl	%edx, -32(%rbp)
	movq	%rcx, -40(%rbp)
	movq	%r8, -48(%rbp)
	movl	%r9d, -52(%rbp)
	.loc 1 714 8
	movl	-32(%rbp), %edx
	movl	-28(%rbp), %eax
	movl	%edx, %esi
	movl	%eax, %edi
	call	bf_Open
	movq	%rax, -8(%rbp)
	.loc 1 715 6
	cmpq	$0, -8(%rbp)
	je	.L144
	.loc 1 717 21
	movq	-8(%rbp), %rax
	movl	32(%rbp), %edx
	movl	%edx, 1304(%rax)
	.loc 1 718 21
	movq	-8(%rbp), %rax
	movl	40(%rbp), %edx
	movl	%edx, 1308(%rax)
	.loc 1 720 10
	movq	-24(%rbp), %rdx
	movq	-8(%rbp), %rax
	movq	%rdx, %rsi
	movq	%rax, %rdi
	call	bf_ParseFile@PLT
	.loc 1 720 8
	testl	%eax, %eax
	je	.L145
	.loc 1 722 25
	movq	-48(%rbp), %rax
	movzbl	(%rax), %eax
	.loc 1 722 10
	testb	%al, %al
	je	.L146
	.loc 1 724 2
	movq	-48(%rbp), %rdx
	movq	-8(%rbp), %rax
	movq	%rdx, %rsi
	movq	%rax, %rdi
	call	bf_MapFile@PLT
	jmp	.L147
.L146:
	.loc 1 728 2
	movq	-40(%rbp), %rdx
	movq	-8(%rbp), %rax
	movq	%rdx, %rsi
	movq	%rax, %rdi
	call	bf_Map@PLT
.L147:
	.loc 1 730 7
	movq	-8(%rbp), %rax
	movq	%rax, %rdi
	call	bf_CalculateSelectedNumberOfGlyphs
	.loc 1 732 7
	movq	-8(%rbp), %rax
	movq	%rax, %rdi
	call	bf_ReduceAllGlyph
	.loc 1 733 7
	movq	-8(%rbp), %rax
	movq	%rax, %rdi
	call	bf_CalculateMaxBBX
	.loc 1 735 7
	movq	-8(%rbp), %rax
	movq	%rax, %rdi
	call	bf_CalculateMinMaxDWidth
	.loc 1 738 14
	movq	-8(%rbp), %rax
	movl	1160(%rax), %eax
	.loc 1 738 10
	cmpl	$2, %eax
	jne	.L148
	.loc 1 739 14
	movq	-8(%rbp), %rax
	movq	1168(%rax), %rdx
	.loc 1 739 21
	movq	-8(%rbp), %rax
	movq	1240(%rax), %rax
	.loc 1 739 5
	cmpq	%rax, %rdx
	jge	.L148
	.loc 1 740 18
	movq	-8(%rbp), %rax
	movq	1240(%rax), %rdx
	.loc 1 740 14
	movq	-8(%rbp), %rax
	movq	%rdx, 1168(%rax)
.L148:
	.loc 1 742 7
	movq	-8(%rbp), %rax
	movq	%rax, %rdi
	call	bf_CalculateMaxBitFieldSize
	.loc 1 745 10
	cmpl	$0, -52(%rbp)
	je	.L149
	.loc 1 745 29 discriminator 1
	cmpl	$1, -52(%rbp)
	jne	.L150
.L149:
	.loc 1 747 2
	movq	-8(%rbp), %rax
	movq	%rax, %rdi
	call	bf_RLECompressAllGlyphs@PLT
	jmp	.L151
.L150:
	.loc 1 751 2
	movl	24(%rbp), %edx
	movq	-8(%rbp), %rax
	movl	16(%rbp), %esi
	movq	%rax, %rdi
	call	bf_Generate8x8Font@PLT
.L151:
	.loc 1 754 14
	movq	-8(%rbp), %rax
	movl	1160(%rax), %eax
	.loc 1 754 10
	testl	%eax, %eax
	je	.L152
	.loc 1 755 2
	movq	-8(%rbp), %rax
	movq	%rax, %rdi
	call	bf_ShowMonospaceStatistics
.L152:
	.loc 1 757 14
	movq	-8(%rbp), %rax
	jmp	.L153
.L145:
	.loc 1 759 5
	movq	-8(%rbp), %rax
	movq	%rax, %rdi
	call	bf_Close
.L144:
	.loc 1 761 10
	movl	$0, %eax
.L153:
	.loc 1 762 1
	leave
	.cfi_def_cfa 7, 8
	ret
	.cfi_endproc
.LFE31:
	.size	bf_OpenFromFile, .-bf_OpenFromFile
.Letext0:
	.file 2 "/usr/lib/gcc/x86_64-linux-gnu/9/include/stddef.h"
	.file 3 "/usr/include/x86_64-linux-gnu/bits/types.h"
	.file 4 "/usr/lib/gcc/x86_64-linux-gnu/9/include/stdarg.h"
	.file 5 "<built-in>"
	.file 6 "/usr/include/x86_64-linux-gnu/bits/types/struct_FILE.h"
	.file 7 "/usr/include/x86_64-linux-gnu/bits/types/FILE.h"
	.file 8 "/usr/include/stdio.h"
	.file 9 "/usr/include/x86_64-linux-gnu/bits/sys_errlist.h"
	.file 10 "/usr/include/x86_64-linux-gnu/bits/stdint-uintn.h"
	.file 11 "bdf_glyph.h"
	.file 12 "bdf_font.h"
	.section	.note.GNU-stack,"",@progbits
	.section	.note.gnu.property,"a"
	.align 8
	.long	 1f - 0f
	.long	 4f - 1f
	.long	 5
0:
	.string	 "GNU"
1:
	.align 8
	.long	 0xc0000002
	.long	 3f - 2f
2:
	.long	 0x3
3:
	.align 8
4:
