	.file	"bdf_parser.c"
	.text
.Ltext0:
	.type	bf_curr, @function
bf_curr:
.LFB6:
	.file 1 "bdf_parser.c"
	.loc 1 9 1
	.cfi_startproc
	endbr64
	pushq	%rbp
	.cfi_def_cfa_offset 16
	.cfi_offset 6, -16
	movq	%rsp, %rbp
	.cfi_def_cfa_register 6
	movq	%rdi, -8(%rbp)
	.loc 1 10 10
	movq	-8(%rbp), %rax
	movl	1048(%rax), %eax
	.loc 1 10 6
	cmpl	$1023, %eax
	jle	.L2
	.loc 1 11 12
	movl	$0, %eax
	jmp	.L3
.L2:
	.loc 1 12 25
	movq	-8(%rbp), %rax
	movl	1048(%rax), %eax
	.loc 1 12 22
	movq	-8(%rbp), %rdx
	cltq
	movzbl	24(%rdx,%rax), %eax
	movsbl	%al, %eax
.L3:
	.loc 1 13 1
	popq	%rbp
	.cfi_def_cfa 7, 8
	ret
	.cfi_endproc
.LFE6:
	.size	bf_curr, .-bf_curr
	.type	bf_next, @function
bf_next:
.LFB7:
	.loc 1 16 1
	.cfi_startproc
	endbr64
	pushq	%rbp
	.cfi_def_cfa_offset 16
	.cfi_offset 6, -16
	movq	%rsp, %rbp
	.cfi_def_cfa_register 6
	subq	$8, %rsp
	movq	%rdi, -8(%rbp)
	.loc 1 17 8
	movq	-8(%rbp), %rax
	movq	%rax, %rdi
	call	bf_curr
	.loc 1 17 6
	testl	%eax, %eax
	je	.L8
	.loc 1 19 10
	movq	-8(%rbp), %rax
	movl	1048(%rax), %eax
	.loc 1 19 6
	cmpl	$1023, %eax
	jg	.L9
	.loc 1 21 5
	movq	-8(%rbp), %rax
	movl	1048(%rax), %eax
	.loc 1 21 15
	leal	1(%rax), %edx
	movq	-8(%rbp), %rax
	movl	%edx, 1048(%rax)
	jmp	.L4
.L8:
	.loc 1 18 5
	nop
	jmp	.L4
.L9:
	.loc 1 20 5
	nop
.L4:
	.loc 1 22 1
	leave
	.cfi_def_cfa 7, 8
	ret
	.cfi_endproc
.LFE7:
	.size	bf_next, .-bf_next
	.type	bf_skipspace, @function
bf_skipspace:
.LFB8:
	.loc 1 25 1
	.cfi_startproc
	endbr64
	pushq	%rbp
	.cfi_def_cfa_offset 16
	.cfi_offset 6, -16
	movq	%rsp, %rbp
	.cfi_def_cfa_register 6
	subq	$24, %rsp
	movq	%rdi, -24(%rbp)
.L14:
	.loc 1 30 9
	movq	-24(%rbp), %rax
	movq	%rax, %rdi
	call	bf_curr
	movl	%eax, -4(%rbp)
	.loc 1 31 8
	cmpl	$0, -4(%rbp)
	je	.L15
	.loc 1 33 8
	cmpl	$32, -4(%rbp)
	jg	.L16
	.loc 1 35 5
	movq	-24(%rbp), %rax
	movq	%rax, %rdi
	call	bf_next
	.loc 1 30 7
	jmp	.L14
.L15:
	.loc 1 32 7
	nop
	jmp	.L10
.L16:
	.loc 1 34 7
	nop
.L10:
	.loc 1 37 1
	leave
	.cfi_def_cfa 7, 8
	ret
	.cfi_endproc
.LFE8:
	.size	bf_skipspace, .-bf_skipspace
	.type	bf_get_identifier, @function
bf_get_identifier:
.LFB9:
	.loc 1 40 1
	.cfi_startproc
	endbr64
	pushq	%rbp
	.cfi_def_cfa_offset 16
	.cfi_offset 6, -16
	movq	%rsp, %rbp
	.cfi_def_cfa_register 6
	subq	$24, %rsp
	movq	%rdi, -24(%rbp)
	.loc 1 43 7
	movl	$0, -8(%rbp)
	.loc 1 44 10
	movb	$0, buf.3311(%rip)
.L21:
	.loc 1 47 9
	movq	-24(%rbp), %rax
	movq	%rax, %rdi
	call	bf_curr
	movl	%eax, -4(%rbp)
	.loc 1 48 8
	cmpl	$32, -4(%rbp)
	jle	.L23
	.loc 1 50 8
	cmpl	$1021, -8(%rbp)
	jg	.L24
	.loc 1 52 10
	movl	-8(%rbp), %eax
	leal	1(%rax), %edx
	movl	%edx, -8(%rbp)
	.loc 1 52 14
	movl	-4(%rbp), %edx
	movl	%edx, %ecx
	cltq
	leaq	buf.3311(%rip), %rdx
	movb	%cl, (%rax,%rdx)
	.loc 1 53 12
	movl	-8(%rbp), %eax
	cltq
	leaq	buf.3311(%rip), %rdx
	movb	$0, (%rax,%rdx)
	.loc 1 54 5
	movq	-24(%rbp), %rax
	movq	%rax, %rdi
	call	bf_next
	.loc 1 47 7
	jmp	.L21
.L23:
	.loc 1 49 7
	nop
	jmp	.L19
.L24:
	.loc 1 51 7
	nop
.L19:
	.loc 1 56 3
	movq	-24(%rbp), %rax
	movq	%rax, %rdi
	call	bf_skipspace
	.loc 1 57 10
	leaq	buf.3311(%rip), %rax
	.loc 1 58 1
	leave
	.cfi_def_cfa 7, 8
	ret
	.cfi_endproc
.LFE9:
	.size	bf_get_identifier, .-bf_get_identifier
	.type	bf_get_string, @function
bf_get_string:
.LFB10:
	.loc 1 61 1
	.cfi_startproc
	endbr64
	pushq	%rbp
	.cfi_def_cfa_offset 16
	.cfi_offset 6, -16
	movq	%rsp, %rbp
	.cfi_def_cfa_register 6
	subq	$24, %rsp
	movq	%rdi, -24(%rbp)
	.loc 1 63 7
	movl	$0, -8(%rbp)
	.loc 1 66 10
	movb	$0, buf.3319(%rip)
	.loc 1 68 8
	movq	-24(%rbp), %rax
	movq	%rax, %rdi
	call	bf_curr
	.loc 1 68 6
	cmpl	$34, %eax
	je	.L26
	.loc 1 69 12
	movq	-24(%rbp), %rax
	movq	%rax, %rdi
	call	bf_get_identifier
	jmp	.L27
.L26:
	.loc 1 71 3
	movq	-24(%rbp), %rax
	movq	%rax, %rdi
	call	bf_next
.L33:
	.loc 1 75 9
	movq	-24(%rbp), %rax
	movq	%rax, %rdi
	call	bf_curr
	movl	%eax, -4(%rbp)
	.loc 1 76 8
	cmpl	$0, -4(%rbp)
	je	.L35
	.loc 1 78 8
	cmpl	$34, -4(%rbp)
	je	.L36
	.loc 1 80 8
	cmpl	$1021, -8(%rbp)
	jg	.L37
	.loc 1 82 8
	cmpl	$13, -4(%rbp)
	je	.L32
	.loc 1 82 20 discriminator 1
	cmpl	$10, -4(%rbp)
	je	.L32
	.loc 1 84 12
	movl	-8(%rbp), %eax
	leal	1(%rax), %edx
	movl	%edx, -8(%rbp)
	.loc 1 84 16
	movl	-4(%rbp), %edx
	movl	%edx, %ecx
	cltq
	leaq	buf.3319(%rip), %rdx
	movb	%cl, (%rax,%rdx)
	.loc 1 85 14
	movl	-8(%rbp), %eax
	cltq
	leaq	buf.3319(%rip), %rdx
	movb	$0, (%rax,%rdx)
.L32:
	.loc 1 87 5
	movq	-24(%rbp), %rax
	movq	%rax, %rdi
	call	bf_next
	.loc 1 75 7
	jmp	.L33
.L35:
	.loc 1 77 7
	nop
	jmp	.L29
.L36:
	.loc 1 79 7
	nop
	jmp	.L29
.L37:
	.loc 1 81 7
	nop
.L29:
	.loc 1 89 8
	movq	-24(%rbp), %rax
	movq	%rax, %rdi
	call	bf_curr
	.loc 1 89 6
	cmpl	$34, %eax
	jne	.L34
	.loc 1 90 5
	movq	-24(%rbp), %rax
	movq	%rax, %rdi
	call	bf_next
.L34:
	.loc 1 92 3
	movq	-24(%rbp), %rax
	movq	%rax, %rdi
	call	bf_skipspace
	.loc 1 93 10
	leaq	buf.3319(%rip), %rax
.L27:
	.loc 1 94 1
	leave
	.cfi_def_cfa 7, 8
	ret
	.cfi_endproc
.LFE10:
	.size	bf_get_string, .-bf_get_string
	.type	bf_get_eol_string, @function
bf_get_eol_string:
.LFB11:
	.loc 1 97 1
	.cfi_startproc
	endbr64
	pushq	%rbp
	.cfi_def_cfa_offset 16
	.cfi_offset 6, -16
	movq	%rsp, %rbp
	.cfi_def_cfa_register 6
	subq	$24, %rsp
	movq	%rdi, -24(%rbp)
	.loc 1 99 7
	movl	$0, -8(%rbp)
	.loc 1 102 10
	movb	$0, buf.3327(%rip)
	.loc 1 104 8
	movq	-24(%rbp), %rax
	movq	%rax, %rdi
	call	bf_curr
	.loc 1 104 6
	cmpl	$34, %eax
	jne	.L39
	.loc 1 105 12
	movq	-24(%rbp), %rax
	movq	%rax, %rdi
	call	bf_get_string
	jmp	.L40
.L39:
	.loc 1 110 9
	movq	-24(%rbp), %rax
	movq	%rax, %rdi
	call	bf_curr
	movl	%eax, -4(%rbp)
	.loc 1 111 8
	cmpl	$0, -4(%rbp)
	je	.L44
	.loc 1 113 8
	cmpl	$10, -4(%rbp)
	je	.L42
	.loc 1 113 20 discriminator 1
	cmpl	$13, -4(%rbp)
	je	.L42
	.loc 1 115 8
	cmpl	$1021, -8(%rbp)
	jg	.L45
	.loc 1 117 10
	movl	-8(%rbp), %eax
	leal	1(%rax), %edx
	movl	%edx, -8(%rbp)
	.loc 1 117 14
	movl	-4(%rbp), %edx
	movl	%edx, %ecx
	cltq
	leaq	buf.3327(%rip), %rdx
	movb	%cl, (%rax,%rdx)
	.loc 1 118 12
	movl	-8(%rbp), %eax
	cltq
	leaq	buf.3327(%rip), %rdx
	movb	$0, (%rax,%rdx)
	.loc 1 119 5
	movq	-24(%rbp), %rax
	movq	%rax, %rdi
	call	bf_next
	.loc 1 110 7
	jmp	.L39
.L44:
	.loc 1 112 7
	nop
	jmp	.L42
.L45:
	.loc 1 116 7
	nop
.L42:
	.loc 1 122 3
	movq	-24(%rbp), %rax
	movq	%rax, %rdi
	call	bf_skipspace
	.loc 1 123 10
	leaq	buf.3327(%rip), %rax
.L40:
	.loc 1 124 1
	leave
	.cfi_def_cfa 7, 8
	ret
	.cfi_endproc
.LFE11:
	.size	bf_get_eol_string, .-bf_get_eol_string
	.type	bf_get_long, @function
bf_get_long:
.LFB12:
	.loc 1 127 1
	.cfi_startproc
	endbr64
	pushq	%rbp
	.cfi_def_cfa_offset 16
	.cfi_offset 6, -16
	movq	%rsp, %rbp
	.cfi_def_cfa_register 6
	subq	$40, %rsp
	movq	%rdi, -40(%rbp)
	.loc 1 129 8
	movq	$0, -16(%rbp)
	.loc 1 130 8
	movq	$1, -8(%rbp)
	.loc 1 132 8
	movq	-40(%rbp), %rax
	movq	%rax, %rdi
	call	bf_curr
	.loc 1 132 6
	cmpl	$45, %eax
	jne	.L51
	.loc 1 134 10
	movq	$-1, -8(%rbp)
	.loc 1 135 5
	movq	-40(%rbp), %rax
	movq	%rax, %rdi
	call	bf_next
	.loc 1 136 5
	movq	-40(%rbp), %rax
	movq	%rax, %rdi
	call	bf_skipspace
.L51:
	.loc 1 141 9
	movq	-40(%rbp), %rax
	movq	%rax, %rdi
	call	bf_curr
	movl	%eax, -20(%rbp)
	.loc 1 142 8
	cmpl	$47, -20(%rbp)
	jle	.L53
	.loc 1 144 8
	cmpl	$57, -20(%rbp)
	jg	.L54
	.loc 1 146 7
	movq	-16(%rbp), %rdx
	movq	%rdx, %rax
	salq	$2, %rax
	addq	%rdx, %rax
	addq	%rax, %rax
	movq	%rax, -16(%rbp)
	.loc 1 147 18
	movl	-20(%rbp), %eax
	subl	$48, %eax
	.loc 1 147 10
	cltq
	.loc 1 147 7
	addq	%rax, -16(%rbp)
	.loc 1 148 5
	movq	-40(%rbp), %rax
	movq	%rax, %rdi
	call	bf_next
	.loc 1 141 7
	jmp	.L51
.L53:
	.loc 1 143 7
	nop
	jmp	.L49
.L54:
	.loc 1 145 7
	nop
.L49:
	.loc 1 150 3
	movq	-40(%rbp), %rax
	movq	%rax, %rdi
	call	bf_skipspace
	.loc 1 152 11
	movq	-16(%rbp), %rax
	imulq	-8(%rbp), %rax
	.loc 1 153 1
	leave
	.cfi_def_cfa 7, 8
	ret
	.cfi_endproc
.LFE12:
	.size	bf_get_long, .-bf_get_long
	.section	.rodata
	.align 8
.LC0:
	.string	"Can not add glyph (memory error?)"
	.align 8
.LC1:
	.string	"Can not create bitmap (memory error?)"
	.text
	.type	bf_add_glyph_to_list, @function
bf_add_glyph_to_list:
.LFB13:
	.loc 1 185 1
	.cfi_startproc
	endbr64
	pushq	%rbp
	.cfi_def_cfa_offset 16
	.cfi_offset 6, -16
	movq	%rsp, %rbp
	.cfi_def_cfa_register 6
	subq	$32, %rsp
	movq	%rdi, -24(%rbp)
	.loc 1 187 19
	movq	-24(%rbp), %rax
	movq	%rax, %rdi
	call	bf_AddGlyph@PLT
	.loc 1 187 17
	movq	-24(%rbp), %rdx
	movl	%eax, 1120(%rdx)
	.loc 1 188 10
	movq	-24(%rbp), %rax
	movl	1120(%rax), %eax
	.loc 1 188 6
	testl	%eax, %eax
	jns	.L56
	.loc 1 190 5
	movq	-24(%rbp), %rax
	leaq	.LC0(%rip), %rsi
	movq	%rax, %rdi
	movl	$0, %eax
	call	bf_Error@PLT
	.loc 1 191 12
	movl	$0, %eax
	jmp	.L57
.L56:
	.loc 1 194 10
	movq	-24(%rbp), %rax
	movq	8(%rax), %rdx
	.loc 1 194 25
	movq	-24(%rbp), %rax
	movl	1120(%rax), %eax
	cltq
	.loc 1 194 22
	salq	$3, %rax
	addq	%rdx, %rax
	.loc 1 194 6
	movq	(%rax), %rax
	movq	%rax, -8(%rbp)
	.loc 1 197 20
	movq	-24(%rbp), %rax
	movq	1056(%rax), %rdx
	.loc 1 197 16
	movq	-8(%rbp), %rax
	movq	%rdx, 8(%rax)
	.loc 1 198 20
	movq	-24(%rbp), %rax
	movq	1064(%rax), %rdx
	.loc 1 198 16
	movq	-8(%rbp), %rax
	movq	%rdx, 24(%rax)
	.loc 1 199 20
	movq	-24(%rbp), %rax
	movq	1072(%rax), %rdx
	.loc 1 199 16
	movq	-8(%rbp), %rax
	movq	%rdx, 32(%rax)
	.loc 1 200 17
	movq	-24(%rbp), %rax
	movq	1080(%rax), %rdx
	.loc 1 200 13
	movq	-8(%rbp), %rax
	movq	%rdx, 40(%rax)
	.loc 1 201 17
	movq	-24(%rbp), %rax
	movq	1088(%rax), %rdx
	.loc 1 201 13
	movq	-8(%rbp), %rax
	movq	%rdx, 48(%rax)
	.loc 1 202 17
	movq	-24(%rbp), %rax
	movq	1096(%rax), %rdx
	.loc 1 202 13
	movq	-8(%rbp), %rax
	movq	%rdx, 56(%rax)
	.loc 1 203 17
	movq	-24(%rbp), %rax
	movq	1104(%rax), %rdx
	.loc 1 203 13
	movq	-8(%rbp), %rax
	movq	%rdx, 64(%rax)
	.loc 1 205 42
	movq	-24(%rbp), %rax
	movq	1088(%rax), %rax
	.loc 1 205 8
	movl	%eax, %edx
	.loc 1 205 31
	movq	-24(%rbp), %rax
	movq	1080(%rax), %rax
	.loc 1 205 8
	movl	%eax, %ecx
	movq	-8(%rbp), %rax
	movl	%ecx, %esi
	movq	%rax, %rdi
	call	bg_SetBitmapSize@PLT
	.loc 1 205 6
	testl	%eax, %eax
	jne	.L58
	.loc 1 207 5
	movq	-24(%rbp), %rax
	leaq	.LC1(%rip), %rsi
	movq	%rax, %rdi
	movl	$0, %eax
	call	bf_Error@PLT
	.loc 1 208 12
	movl	$0, %eax
	jmp	.L57
.L58:
	.loc 1 211 24
	movq	-24(%rbp), %rax
	movq	1080(%rax), %rax
	.loc 1 211 20
	movl	%eax, %edx
	movq	-8(%rbp), %rax
	movl	%edx, 96(%rax)
	.loc 1 212 25
	movq	-24(%rbp), %rax
	movq	1088(%rax), %rax
	.loc 1 212 21
	movl	%eax, %edx
	movq	-8(%rbp), %rax
	movl	%edx, 100(%rax)
	.loc 1 220 10
	movl	$1, %eax
.L57:
	.loc 1 221 1
	leave
	.cfi_def_cfa 7, 8
	ret
	.cfi_endproc
.LFE13:
	.size	bf_add_glyph_to_list, .-bf_add_glyph_to_list
	.section	.rodata
.LC2:
	.string	"bdf_parser.c"
.LC3:
	.string	"bf->glyph_list != NULL"
	.text
	.type	bf_set_pixel_by_halfbyte, @function
bf_set_pixel_by_halfbyte:
.LFB14:
	.loc 1 224 1
	.cfi_startproc
	endbr64
	pushq	%rbp
	.cfi_def_cfa_offset 16
	.cfi_offset 6, -16
	movq	%rsp, %rbp
	.cfi_def_cfa_register 6
	subq	$32, %rsp
	movq	%rdi, -24(%rbp)
	movl	%esi, -28(%rbp)
	.loc 1 228 3
	movq	-24(%rbp), %rax
	movq	8(%rax), %rax
	testq	%rax, %rax
	jne	.L60
	.loc 1 228 3 is_stmt 0 discriminator 1
	leaq	__PRETTY_FUNCTION__.3350(%rip), %rcx
	movl	$228, %edx
	leaq	.LC2(%rip), %rsi
	leaq	.LC3(%rip), %rdi
	call	__assert_fail@PLT
.L60:
	.loc 1 230 10 is_stmt 1
	movq	-24(%rbp), %rax
	movq	8(%rax), %rdx
	.loc 1 230 25
	movq	-24(%rbp), %rax
	movl	1120(%rax), %eax
	cltq
	.loc 1 230 22
	salq	$3, %rax
	addq	%rdx, %rax
	.loc 1 230 6
	movq	(%rax), %rax
	movq	%rax, -8(%rbp)
	.loc 1 232 11
	movl	$0, -12(%rbp)
	.loc 1 232 3
	jmp	.L61
.L63:
	.loc 1 234 20
	movl	-28(%rbp), %eax
	andl	$8, %eax
	.loc 1 234 8
	testl	%eax, %eax
	je	.L62
	.loc 1 236 7
	movq	-24(%rbp), %rax
	movl	1116(%rax), %edx
	movq	-24(%rbp), %rax
	movl	1112(%rax), %esi
	movq	-8(%rbp), %rax
	movl	$1, %ecx
	movq	%rax, %rdi
	call	bg_SetBitmapPixel@PLT
.L62:
	.loc 1 238 13 discriminator 2
	sall	-28(%rbp)
	.loc 1 239 7 discriminator 2
	movq	-24(%rbp), %rax
	movl	1112(%rax), %eax
	.loc 1 239 17 discriminator 2
	leal	1(%rax), %edx
	movq	-24(%rbp), %rax
	movl	%edx, 1112(%rax)
	.loc 1 232 24 discriminator 2
	addl	$1, -12(%rbp)
.L61:
	.loc 1 232 3 discriminator 1
	cmpl	$3, -12(%rbp)
	jle	.L63
	.loc 1 241 1
	nop
	nop
	leave
	.cfi_def_cfa 7, 8
	ret
	.cfi_endproc
.LFE14:
	.size	bf_set_pixel_by_halfbyte, .-bf_set_pixel_by_halfbyte
	.type	bf_set_pixel_by_hex_char, @function
bf_set_pixel_by_hex_char:
.LFB15:
	.loc 1 244 1
	.cfi_startproc
	endbr64
	pushq	%rbp
	.cfi_def_cfa_offset 16
	.cfi_offset 6, -16
	movq	%rsp, %rbp
	.cfi_def_cfa_register 6
	subq	$16, %rsp
	movq	%rdi, -8(%rbp)
	movl	%esi, -12(%rbp)
	.loc 1 245 6
	cmpl	$47, -12(%rbp)
	jle	.L65
	.loc 1 245 19 discriminator 1
	cmpl	$57, -12(%rbp)
	jg	.L65
	.loc 1 246 12
	movl	-12(%rbp), %eax
	leal	-48(%rax), %edx
	movq	-8(%rbp), %rax
	movl	%edx, %esi
	movq	%rax, %rdi
	call	bf_set_pixel_by_halfbyte
	jmp	.L64
.L65:
	.loc 1 247 6
	cmpl	$96, -12(%rbp)
	jle	.L67
	.loc 1 247 19 discriminator 1
	cmpl	$102, -12(%rbp)
	jg	.L67
	.loc 1 248 12
	movl	-12(%rbp), %eax
	leal	-87(%rax), %edx
	movq	-8(%rbp), %rax
	movl	%edx, %esi
	movq	%rax, %rdi
	call	bf_set_pixel_by_halfbyte
	jmp	.L64
.L67:
	.loc 1 249 6
	cmpl	$64, -12(%rbp)
	jle	.L68
	.loc 1 249 19 discriminator 1
	cmpl	$70, -12(%rbp)
	jg	.L68
	.loc 1 250 12
	movl	-12(%rbp), %eax
	leal	-55(%rax), %edx
	movq	-8(%rbp), %rax
	movl	%edx, %esi
	movq	%rax, %rdi
	call	bf_set_pixel_by_halfbyte
	jmp	.L64
.L68:
	.loc 1 251 10
	movq	-8(%rbp), %rax
	movl	$0, %esi
	movq	%rax, %rdi
	call	bf_set_pixel_by_halfbyte
.L64:
	.loc 1 252 1
	leave
	.cfi_def_cfa 7, 8
	ret
	.cfi_endproc
.LFE15:
	.size	bf_set_pixel_by_hex_char, .-bf_set_pixel_by_hex_char
	.section	.rodata
.LC4:
	.string	"STARTFONT"
.LC5:
	.string	"FONT"
.LC6:
	.string	"SIZE"
.LC7:
	.string	"FONTBOUNDINGBOX"
.LC8:
	.string	"STARTPROPERTIES"
.LC9:
	.string	"FONTNAME_REGISTRY"
.LC10:
	.string	"FOUNDRY"
.LC11:
	.string	"FAMILY_NAME"
.LC12:
	.string	"WEIGHT_NAME"
.LC13:
	.string	"SLANT"
.LC14:
	.string	"SETWIDTH_NAME"
.LC15:
	.string	"ADD_STYLE_NAME"
.LC16:
	.string	"PIXEL_SIZE"
.LC17:
	.string	"POINT_SIZE"
.LC18:
	.string	"RESOLUTION_X"
.LC19:
	.string	"RESOLUTION_Y"
.LC20:
	.string	"SPACING"
.LC21:
	.string	"AVERAGE_WIDTH"
.LC22:
	.string	"CHARSET_REGISTRY"
.LC23:
	.string	"CHARSET_ENCODING"
.LC24:
	.string	"DESTINATION"
.LC25:
	.string	"COPYRIGHT"
.LC26:
	.string	"_XMBDFED_INFO"
.LC27:
	.string	"CAP_HEIGHT"
.LC28:
	.string	"X_HEIGHT"
.LC29:
	.string	"WEIGHT"
.LC30:
	.string	"QUAD_WIDTH"
.LC31:
	.string	"DEFAULT_CHAR"
.LC32:
	.string	"FONT_DESCENT"
.LC33:
	.string	"FONT_ASCENT"
.LC34:
	.string	"ENDPROPERTIES"
.LC35:
	.string	"CHARS"
.LC36:
	.string	"STARTCHAR"
.LC37:
	.string	"ENCODING"
.LC38:
	.string	"SWIDTH"
.LC39:
	.string	"DWIDTH"
.LC40:
	.string	"BBX"
.LC41:
	.string	"BITMAP"
.LC42:
	.string	"ENDCHAR"
.LC43:
	.string	"Unexpected ENDCHAR found"
	.text
	.type	bf_parse_line, @function
bf_parse_line:
.LFB16:
	.loc 1 255 1
	.cfi_startproc
	endbr64
	pushq	%rbp
	.cfi_def_cfa_offset 16
	.cfi_offset 6, -16
	movq	%rsp, %rbp
	.cfi_def_cfa_register 6
	subq	$32, %rsp
	movq	%rdi, -24(%rbp)
	.loc 1 258 16
	movq	-24(%rbp), %rax
	movl	$0, 1048(%rax)
	.loc 1 259 3
	movq	-24(%rbp), %rax
	movq	%rax, %rdi
	call	bf_skipspace
	.loc 1 261 10
	movq	-24(%rbp), %rax
	movl	1052(%rax), %eax
	.loc 1 261 6
	testl	%eax, %eax
	jne	.L70
	.loc 1 264 18
	movq	-24(%rbp), %rax
	movl	$0, 1116(%rax)
	.loc 1 265 5
	movq	-24(%rbp), %rax
	movq	%rax, %rdi
	call	bf_get_string
	movq	%rax, %rsi
	leaq	cmd.3361(%rip), %rdi
	call	strcpy@PLT
	.loc 1 267 10
	movzbl	cmd.3361(%rip), %eax
	movzbl	%al, %eax
	.loc 1 267 8
	testl	%eax, %eax
	jne	.L71
	.loc 1 269 14
	movl	$1, %eax
	jmp	.L72
.L71:
	.loc 1 271 15
	leaq	.LC4(%rip), %rsi
	leaq	cmd.3361(%rip), %rdi
	call	strcmp@PLT
	.loc 1 271 13
	testl	%eax, %eax
	je	.L73
	.loc 1 274 15
	leaq	.LC5(%rip), %rsi
	leaq	cmd.3361(%rip), %rdi
	call	strcmp@PLT
	.loc 1 274 13
	testl	%eax, %eax
	jne	.L74
	.loc 1 276 14
	movq	-24(%rbp), %rax
	movq	1136(%rax), %rax
	.loc 1 276 10
	testq	%rax, %rax
	je	.L75
	.loc 1 277 9
	movq	-24(%rbp), %rax
	movq	1136(%rax), %rax
	.loc 1 277 2
	movq	%rax, %rdi
	call	free@PLT
.L75:
	.loc 1 278 22
	movq	-24(%rbp), %rax
	movq	%rax, %rdi
	call	bf_get_eol_string
	movq	%rax, %rdi
	call	strdup@PLT
	movq	%rax, %rdx
	.loc 1 278 20
	movq	-24(%rbp), %rax
	movq	%rdx, 1136(%rax)
	jmp	.L73
.L74:
	.loc 1 280 15
	leaq	.LC6(%rip), %rsi
	leaq	cmd.3361(%rip), %rdi
	call	strcmp@PLT
	.loc 1 280 13
	testl	%eax, %eax
	je	.L73
	.loc 1 283 15
	leaq	.LC7(%rip), %rsi
	leaq	cmd.3361(%rip), %rdi
	call	strcmp@PLT
	.loc 1 283 13
	testl	%eax, %eax
	je	.L73
	.loc 1 286 15
	leaq	.LC8(%rip), %rsi
	leaq	cmd.3361(%rip), %rdi
	call	strcmp@PLT
	.loc 1 286 13
	testl	%eax, %eax
	je	.L73
	.loc 1 289 15
	leaq	.LC9(%rip), %rsi
	leaq	cmd.3361(%rip), %rdi
	call	strcmp@PLT
	.loc 1 289 13
	testl	%eax, %eax
	je	.L73
	.loc 1 292 15
	leaq	.LC10(%rip), %rsi
	leaq	cmd.3361(%rip), %rdi
	call	strcmp@PLT
	.loc 1 292 13
	testl	%eax, %eax
	je	.L73
	.loc 1 295 15
	leaq	.LC11(%rip), %rsi
	leaq	cmd.3361(%rip), %rdi
	call	strcmp@PLT
	.loc 1 295 13
	testl	%eax, %eax
	je	.L73
	.loc 1 298 15
	leaq	.LC12(%rip), %rsi
	leaq	cmd.3361(%rip), %rdi
	call	strcmp@PLT
	.loc 1 298 13
	testl	%eax, %eax
	je	.L73
	.loc 1 301 15
	leaq	.LC13(%rip), %rsi
	leaq	cmd.3361(%rip), %rdi
	call	strcmp@PLT
	.loc 1 301 13
	testl	%eax, %eax
	je	.L73
	.loc 1 304 15
	leaq	.LC14(%rip), %rsi
	leaq	cmd.3361(%rip), %rdi
	call	strcmp@PLT
	.loc 1 304 13
	testl	%eax, %eax
	je	.L73
	.loc 1 307 15
	leaq	.LC15(%rip), %rsi
	leaq	cmd.3361(%rip), %rdi
	call	strcmp@PLT
	.loc 1 307 13
	testl	%eax, %eax
	je	.L73
	.loc 1 310 15
	leaq	.LC16(%rip), %rsi
	leaq	cmd.3361(%rip), %rdi
	call	strcmp@PLT
	.loc 1 310 13
	testl	%eax, %eax
	je	.L73
	.loc 1 313 15
	leaq	.LC17(%rip), %rsi
	leaq	cmd.3361(%rip), %rdi
	call	strcmp@PLT
	.loc 1 313 13
	testl	%eax, %eax
	je	.L73
	.loc 1 316 15
	leaq	.LC18(%rip), %rsi
	leaq	cmd.3361(%rip), %rdi
	call	strcmp@PLT
	.loc 1 316 13
	testl	%eax, %eax
	je	.L73
	.loc 1 319 15
	leaq	.LC19(%rip), %rsi
	leaq	cmd.3361(%rip), %rdi
	call	strcmp@PLT
	.loc 1 319 13
	testl	%eax, %eax
	je	.L73
	.loc 1 322 15
	leaq	.LC20(%rip), %rsi
	leaq	cmd.3361(%rip), %rdi
	call	strcmp@PLT
	.loc 1 322 13
	testl	%eax, %eax
	je	.L73
	.loc 1 325 15
	leaq	.LC21(%rip), %rsi
	leaq	cmd.3361(%rip), %rdi
	call	strcmp@PLT
	.loc 1 325 13
	testl	%eax, %eax
	je	.L73
	.loc 1 328 15
	leaq	.LC22(%rip), %rsi
	leaq	cmd.3361(%rip), %rdi
	call	strcmp@PLT
	.loc 1 328 13
	testl	%eax, %eax
	je	.L73
	.loc 1 331 15
	leaq	.LC23(%rip), %rsi
	leaq	cmd.3361(%rip), %rdi
	call	strcmp@PLT
	.loc 1 331 13
	testl	%eax, %eax
	je	.L73
	.loc 1 334 15
	leaq	.LC24(%rip), %rsi
	leaq	cmd.3361(%rip), %rdi
	call	strcmp@PLT
	.loc 1 334 13
	testl	%eax, %eax
	je	.L73
	.loc 1 337 15
	leaq	.LC25(%rip), %rsi
	leaq	cmd.3361(%rip), %rdi
	call	strcmp@PLT
	.loc 1 337 13
	testl	%eax, %eax
	jne	.L76
	.loc 1 339 14
	movq	-24(%rbp), %rax
	movq	1144(%rax), %rax
	.loc 1 339 10
	testq	%rax, %rax
	je	.L77
	.loc 1 340 9
	movq	-24(%rbp), %rax
	movq	1144(%rax), %rax
	.loc 1 340 2
	movq	%rax, %rdi
	call	free@PLT
.L77:
	.loc 1 341 27
	movq	-24(%rbp), %rax
	movq	%rax, %rdi
	call	bf_get_eol_string
	movq	%rax, %rdi
	call	strdup@PLT
	movq	%rax, %rdx
	.loc 1 341 25
	movq	-24(%rbp), %rax
	movq	%rdx, 1144(%rax)
	jmp	.L73
.L76:
	.loc 1 343 15
	leaq	.LC26(%rip), %rsi
	leaq	cmd.3361(%rip), %rdi
	call	strcmp@PLT
	.loc 1 343 13
	testl	%eax, %eax
	je	.L73
	.loc 1 346 15
	leaq	.LC27(%rip), %rsi
	leaq	cmd.3361(%rip), %rdi
	call	strcmp@PLT
	.loc 1 346 13
	testl	%eax, %eax
	je	.L73
	.loc 1 349 15
	leaq	.LC28(%rip), %rsi
	leaq	cmd.3361(%rip), %rdi
	call	strcmp@PLT
	.loc 1 349 13
	testl	%eax, %eax
	je	.L73
	.loc 1 352 15
	leaq	.LC29(%rip), %rsi
	leaq	cmd.3361(%rip), %rdi
	call	strcmp@PLT
	.loc 1 352 13
	testl	%eax, %eax
	je	.L73
	.loc 1 355 15
	leaq	.LC30(%rip), %rsi
	leaq	cmd.3361(%rip), %rdi
	call	strcmp@PLT
	.loc 1 355 13
	testl	%eax, %eax
	je	.L73
	.loc 1 358 15
	leaq	.LC31(%rip), %rsi
	leaq	cmd.3361(%rip), %rdi
	call	strcmp@PLT
	.loc 1 358 13
	testl	%eax, %eax
	je	.L73
	.loc 1 361 15
	leaq	.LC32(%rip), %rsi
	leaq	cmd.3361(%rip), %rdi
	call	strcmp@PLT
	.loc 1 361 13
	testl	%eax, %eax
	je	.L73
	.loc 1 364 15
	leaq	.LC33(%rip), %rsi
	leaq	cmd.3361(%rip), %rdi
	call	strcmp@PLT
	.loc 1 364 13
	testl	%eax, %eax
	je	.L73
	.loc 1 367 15
	leaq	.LC34(%rip), %rsi
	leaq	cmd.3361(%rip), %rdi
	call	strcmp@PLT
	.loc 1 367 13
	testl	%eax, %eax
	je	.L73
	.loc 1 370 15
	leaq	.LC35(%rip), %rsi
	leaq	cmd.3361(%rip), %rdi
	call	strcmp@PLT
	.loc 1 370 13
	testl	%eax, %eax
	je	.L73
	.loc 1 373 15
	leaq	.LC36(%rip), %rsi
	leaq	cmd.3361(%rip), %rdi
	call	strcmp@PLT
	.loc 1 373 13
	testl	%eax, %eax
	je	.L73
	.loc 1 376 15
	leaq	.LC37(%rip), %rsi
	leaq	cmd.3361(%rip), %rdi
	call	strcmp@PLT
	.loc 1 376 13
	testl	%eax, %eax
	jne	.L78
	.loc 1 378 22
	movq	-24(%rbp), %rax
	movq	%rax, %rdi
	call	bf_get_long
	.loc 1 378 20
	movq	-24(%rbp), %rdx
	movq	%rax, 1056(%rdx)
	jmp	.L73
.L78:
	.loc 1 381 15
	leaq	.LC38(%rip), %rsi
	leaq	cmd.3361(%rip), %rdi
	call	strcmp@PLT
	.loc 1 381 13
	testl	%eax, %eax
	je	.L73
	.loc 1 384 15
	leaq	.LC39(%rip), %rsi
	leaq	cmd.3361(%rip), %rdi
	call	strcmp@PLT
	.loc 1 384 13
	testl	%eax, %eax
	jne	.L79
	.loc 1 386 22
	movq	-24(%rbp), %rax
	movq	%rax, %rdi
	call	bf_get_long
	.loc 1 386 20
	movq	-24(%rbp), %rdx
	movq	%rax, 1064(%rdx)
	.loc 1 387 22
	movq	-24(%rbp), %rax
	movq	%rax, %rdi
	call	bf_get_long
	.loc 1 387 20
	movq	-24(%rbp), %rdx
	movq	%rax, 1072(%rdx)
	jmp	.L73
.L79:
	.loc 1 390 15
	leaq	.LC40(%rip), %rsi
	leaq	cmd.3361(%rip), %rdi
	call	strcmp@PLT
	.loc 1 390 13
	testl	%eax, %eax
	jne	.L80
	.loc 1 392 19
	movq	-24(%rbp), %rax
	movq	%rax, %rdi
	call	bf_get_long
	.loc 1 392 17
	movq	-24(%rbp), %rdx
	movq	%rax, 1080(%rdx)
	.loc 1 393 19
	movq	-24(%rbp), %rax
	movq	%rax, %rdi
	call	bf_get_long
	.loc 1 393 17
	movq	-24(%rbp), %rdx
	movq	%rax, 1088(%rdx)
	.loc 1 394 19
	movq	-24(%rbp), %rax
	movq	%rax, %rdi
	call	bf_get_long
	.loc 1 394 17
	movq	-24(%rbp), %rdx
	movq	%rax, 1096(%rdx)
	.loc 1 395 19
	movq	-24(%rbp), %rax
	movq	%rax, %rdi
	call	bf_get_long
	.loc 1 395 17
	movq	-24(%rbp), %rdx
	movq	%rax, 1104(%rdx)
	jmp	.L73
.L80:
	.loc 1 397 15
	leaq	.LC41(%rip), %rsi
	leaq	cmd.3361(%rip), %rdi
	call	strcmp@PLT
	.loc 1 397 13
	testl	%eax, %eax
	jne	.L81
	.loc 1 399 12
	movq	-24(%rbp), %rax
	movq	%rax, %rdi
	call	bf_add_glyph_to_list
	.loc 1 399 10
	testl	%eax, %eax
	jne	.L82
	.loc 1 400 9
	movl	$0, %eax
	jmp	.L72
.L82:
	.loc 1 401 29
	movq	-24(%rbp), %rax
	movl	$1, 1052(%rax)
	jmp	.L73
.L81:
	.loc 1 403 15
	leaq	.LC42(%rip), %rsi
	leaq	cmd.3361(%rip), %rdi
	call	strcmp@PLT
	.loc 1 403 13
	testl	%eax, %eax
	jne	.L73
	.loc 1 405 7
	movq	-24(%rbp), %rax
	leaq	.LC43(%rip), %rsi
	movq	%rax, %rdi
	movl	$0, %eax
	call	bf_Error@PLT
	.loc 1 406 14
	movl	$0, %eax
	jmp	.L72
.L70:
.LBB2:
	.loc 1 413 5
	movq	-24(%rbp), %rax
	movq	%rax, %rdi
	call	bf_get_string
	movq	%rax, %rsi
	leaq	cmd.3361(%rip), %rdi
	call	strcpy@PLT
	.loc 1 414 13
	movzbl	cmd.3361(%rip), %eax
	.loc 1 414 8
	testb	%al, %al
	je	.L73
	.loc 1 416 12
	leaq	.LC42(%rip), %rsi
	leaq	cmd.3361(%rip), %rdi
	call	strcmp@PLT
	.loc 1 416 10
	testl	%eax, %eax
	jne	.L83
	.loc 1 418 24
	movq	-24(%rbp), %rax
	movl	$0, 1052(%rax)
	jmp	.L73
.L83:
	.loc 1 423 15
	movq	-24(%rbp), %rax
	movl	$0, 1048(%rax)
	.loc 1 424 2
	movq	-24(%rbp), %rax
	movq	%rax, %rdi
	call	bf_skipspace
	.loc 1 427 15
	movq	-24(%rbp), %rax
	movl	$0, 1112(%rax)
.L86:
	.loc 1 432 8
	movq	-24(%rbp), %rax
	movq	%rax, %rdi
	call	bf_curr
	movl	%eax, -4(%rbp)
	.loc 1 433 7
	cmpl	$47, -4(%rbp)
	jle	.L88
	.loc 1 435 4
	movl	-4(%rbp), %edx
	movq	-24(%rbp), %rax
	movl	%edx, %esi
	movq	%rax, %rdi
	call	bf_set_pixel_by_hex_char
	.loc 1 436 4
	movq	-24(%rbp), %rax
	movq	%rax, %rdi
	call	bf_next
	.loc 1 432 6
	jmp	.L86
.L88:
	.loc 1 434 6
	nop
	.loc 1 439 4
	movq	-24(%rbp), %rax
	movl	1116(%rax), %eax
	.loc 1 439 14
	leal	1(%rax), %edx
	movq	-24(%rbp), %rax
	movl	%edx, 1116(%rax)
.L73:
.LBE2:
	.loc 1 443 10
	movl	$1, %eax
.L72:
	.loc 1 444 1
	leave
	.cfi_def_cfa 7, 8
	ret
	.cfi_endproc
.LFE16:
	.size	bf_parse_line, .-bf_parse_line
	.section	.rodata
.LC44:
	.string	"perse error in line %ld"
	.text
	.type	bf_parse_file, @function
bf_parse_file:
.LFB17:
	.loc 1 447 1
	.cfi_startproc
	endbr64
	pushq	%rbp
	.cfi_def_cfa_offset 16
	.cfi_offset 6, -16
	movq	%rsp, %rbp
	.cfi_def_cfa_register 6
	subq	$32, %rsp
	movq	%rdi, -24(%rbp)
	.loc 1 448 8
	movq	$0, -8(%rbp)
	.loc 1 449 25
	movq	-24(%rbp), %rax
	movl	$0, 1052(%rax)
.L94:
	.loc 1 452 13
	addq	$1, -8(%rbp)
	.loc 1 453 10
	movq	-24(%rbp), %rax
	movq	1128(%rax), %rax
	.loc 1 453 18
	movq	-24(%rbp), %rdx
	leaq	24(%rdx), %rcx
	.loc 1 453 10
	movq	%rax, %rdx
	movl	$1024, %esi
	movq	%rcx, %rdi
	call	fgets@PLT
	.loc 1 453 8
	testq	%rax, %rax
	je	.L96
	.loc 1 455 10
	movq	-24(%rbp), %rax
	movq	%rax, %rdi
	call	bf_parse_line
	.loc 1 455 8
	testl	%eax, %eax
	jne	.L94
	.loc 1 457 7
	movq	-8(%rbp), %rdx
	movq	-24(%rbp), %rax
	leaq	.LC44(%rip), %rsi
	movq	%rax, %rdi
	movl	$0, %eax
	call	bf_Error@PLT
	.loc 1 458 14
	movl	$0, %eax
	jmp	.L93
.L96:
	.loc 1 454 7
	nop
	.loc 1 461 10
	movl	$1, %eax
.L93:
	.loc 1 462 1
	leave
	.cfi_def_cfa 7, 8
	ret
	.cfi_endproc
.LFE17:
	.size	bf_parse_file, .-bf_parse_file
	.section	.rodata
.LC45:
	.string	"r"
.LC46:
	.string	"Can not open bdf file '%s'"
	.align 8
.LC47:
	.string	"Parse File %s: %d glyph(s) found"
	.text
	.globl	bf_ParseFile
	.type	bf_ParseFile, @function
bf_ParseFile:
.LFB18:
	.loc 1 465 1
	.cfi_startproc
	endbr64
	pushq	%rbp
	.cfi_def_cfa_offset 16
	.cfi_offset 6, -16
	movq	%rsp, %rbp
	.cfi_def_cfa_register 6
	subq	$32, %rsp
	movq	%rdi, -24(%rbp)
	movq	%rsi, -32(%rbp)
	.loc 1 467 12
	movq	-32(%rbp), %rax
	leaq	.LC45(%rip), %rsi
	movq	%rax, %rdi
	call	fopen@PLT
	.loc 1 467 10
	movq	-24(%rbp), %rdx
	movq	%rax, 1128(%rdx)
	.loc 1 468 10
	movq	-24(%rbp), %rax
	movq	1128(%rax), %rax
	.loc 1 468 6
	testq	%rax, %rax
	jne	.L98
	.loc 1 470 5
	movq	-32(%rbp), %rdx
	movq	-24(%rbp), %rax
	leaq	.LC46(%rip), %rsi
	movq	%rax, %rdi
	movl	$0, %eax
	call	bf_Error@PLT
	.loc 1 471 12
	movl	$0, %eax
	jmp	.L99
.L98:
	.loc 1 473 7
	movq	-24(%rbp), %rax
	movq	%rax, %rdi
	call	bf_parse_file
	movl	%eax, -4(%rbp)
	.loc 1 474 3
	movq	-24(%rbp), %rax
	movq	1128(%rax), %rax
	movq	%rax, %rdi
	call	fclose@PLT
	.loc 1 475 3
	movq	-24(%rbp), %rax
	movl	16(%rax), %ecx
	movq	-32(%rbp), %rdx
	movq	-24(%rbp), %rax
	leaq	.LC47(%rip), %rsi
	movq	%rax, %rdi
	movl	$0, %eax
	call	bf_Log@PLT
	.loc 1 476 10
	movl	-4(%rbp), %eax
.L99:
	.loc 1 477 1
	leave
	.cfi_def_cfa 7, 8
	ret
	.cfi_endproc
.LFE18:
	.size	bf_ParseFile, .-bf_ParseFile
	.local	buf.3311
	.comm	buf.3311,1024,32
	.local	buf.3319
	.comm	buf.3319,1024,32
	.local	buf.3327
	.comm	buf.3327,1024,32
	.section	.rodata
	.align 16
	.type	__PRETTY_FUNCTION__.3350, @object
	.size	__PRETTY_FUNCTION__.3350, 25
__PRETTY_FUNCTION__.3350:
	.string	"bf_set_pixel_by_halfbyte"
	.local	cmd.3361
	.comm	cmd.3361,1024,32
	.text
.Letext0:
	.file 2 "/usr/lib/gcc/x86_64-linux-gnu/9/include/stddef.h"
	.file 3 "/usr/include/x86_64-linux-gnu/bits/types.h"
	.file 4 "/usr/include/x86_64-linux-gnu/bits/types/struct_FILE.h"
	.file 5 "/usr/include/x86_64-linux-gnu/bits/types/FILE.h"
	.file 6 "/usr/include/stdio.h"
	.file 7 "/usr/include/x86_64-linux-gnu/bits/sys_errlist.h"
	.file 8 "/usr/include/x86_64-linux-gnu/bits/stdint-uintn.h"
	.file 9 "bdf_glyph.h"
	.file 10 "bdf_font.h"
	.section	.note.GNU-stack,"",@progbits
	.section	.note.gnu.property,"a"
	.align 8
	.long	 1f - 0f
	.long	 4f - 1f
	.long	 5
0:
	.string	 "GNU"
1:
	.align 8
	.long	 0xc0000002
	.long	 3f - 2f
2:
	.long	 0x3
3:
	.align 8
4:
