	.file	"fd.c"
	.text
.Ltext0:
	.globl	fd_init
	.type	fd_init, @function
fd_init:
.LFB0:
	.file 1 "fd.c"
	.loc 1 16 1
	.cfi_startproc
	endbr64
	pushq	%rbp
	.cfi_def_cfa_offset 16
	.cfi_offset 6, -16
	movq	%rsp, %rbp
	.cfi_def_cfa_register 6
	movq	%rdi, -8(%rbp)
	.loc 1 17 22
	movq	-8(%rbp), %rax
	movl	$1, 8(%rax)
	.loc 1 18 1
	nop
	popq	%rbp
	.cfi_def_cfa 7, 8
	ret
	.cfi_endproc
.LFE0:
	.size	fd_init, .-fd_init
	.globl	fd_set_font
	.type	fd_set_font, @function
fd_set_font:
.LFB1:
	.loc 1 21 1
	.cfi_startproc
	endbr64
	pushq	%rbp
	.cfi_def_cfa_offset 16
	.cfi_offset 6, -16
	movq	%rsp, %rbp
	.cfi_def_cfa_register 6
	movq	%rdi, -8(%rbp)
	movq	%rsi, -16(%rbp)
	.loc 1 22 26
	movq	-16(%rbp), %rax
	leaq	1(%rax), %rdx
	movq	%rdx, -16(%rbp)
	.loc 1 22 21
	movzbl	(%rax), %edx
	.loc 1 22 19
	movq	-8(%rbp), %rax
	movb	%dl, 48(%rax)
	.loc 1 23 9
	addq	$1, -16(%rbp)
	.loc 1 24 27
	movq	-16(%rbp), %rax
	leaq	1(%rax), %rdx
	movq	%rdx, -16(%rbp)
	.loc 1 24 22
	movzbl	(%rax), %edx
	.loc 1 24 20
	movq	-8(%rbp), %rax
	movb	%dl, 49(%rax)
	.loc 1 25 27
	movq	-16(%rbp), %rax
	leaq	1(%rax), %rdx
	movq	%rdx, -16(%rbp)
	.loc 1 25 22
	movzbl	(%rax), %edx
	.loc 1 25 20
	movq	-8(%rbp), %rax
	movb	%dl, 50(%rax)
	.loc 1 26 36
	movq	-16(%rbp), %rax
	leaq	1(%rax), %rdx
	movq	%rdx, -16(%rbp)
	.loc 1 26 31
	movzbl	(%rax), %edx
	.loc 1 26 29
	movq	-8(%rbp), %rax
	movb	%dl, 51(%rax)
	.loc 1 27 37
	movq	-16(%rbp), %rax
	leaq	1(%rax), %rdx
	movq	%rdx, -16(%rbp)
	.loc 1 27 32
	movzbl	(%rax), %edx
	.loc 1 27 30
	movq	-8(%rbp), %rax
	movb	%dl, 52(%rax)
	.loc 1 28 32
	movq	-16(%rbp), %rax
	leaq	1(%rax), %rdx
	movq	%rdx, -16(%rbp)
	.loc 1 28 27
	movzbl	(%rax), %edx
	.loc 1 28 25
	movq	-8(%rbp), %rax
	movb	%dl, 53(%rax)
	.loc 1 29 32
	movq	-16(%rbp), %rax
	leaq	1(%rax), %rdx
	movq	%rdx, -16(%rbp)
	.loc 1 29 27
	movzbl	(%rax), %edx
	.loc 1 29 25
	movq	-8(%rbp), %rax
	movb	%dl, 54(%rax)
	.loc 1 30 33
	movq	-16(%rbp), %rax
	leaq	1(%rax), %rdx
	movq	%rdx, -16(%rbp)
	.loc 1 30 28
	movzbl	(%rax), %edx
	.loc 1 30 26
	movq	-8(%rbp), %rax
	movb	%dl, 55(%rax)
	.loc 1 31 27
	movq	-16(%rbp), %rax
	leaq	1(%rax), %rdx
	movq	%rdx, -16(%rbp)
	.loc 1 31 22
	movzbl	(%rax), %edx
	.loc 1 31 20
	movq	-8(%rbp), %rax
	movb	%dl, 56(%rax)
	.loc 1 32 28
	movq	-16(%rbp), %rax
	leaq	1(%rax), %rdx
	movq	%rdx, -16(%rbp)
	.loc 1 32 23
	movzbl	(%rax), %edx
	.loc 1 32 21
	movq	-8(%rbp), %rax
	movb	%dl, 57(%rax)
	.loc 1 33 9
	addq	$1, -16(%rbp)
	.loc 1 34 24
	movq	-16(%rbp), %rax
	movzbl	(%rax), %eax
	movl	%eax, %edx
	.loc 1 34 22
	movq	-8(%rbp), %rax
	movb	%dl, 58(%rax)
	.loc 1 35 9
	addq	$1, -16(%rbp)
	.loc 1 37 9
	addq	$1, -16(%rbp)
	.loc 1 38 9
	addq	$1, -16(%rbp)
	.loc 1 39 9
	addq	$1, -16(%rbp)
	.loc 1 40 9
	addq	$1, -16(%rbp)
	.loc 1 42 29
	movq	-16(%rbp), %rax
	leaq	1(%rax), %rdx
	movq	%rdx, -16(%rbp)
	.loc 1 42 24
	movzbl	(%rax), %eax
	movzbl	%al, %edx
	.loc 1 42 22
	movq	-8(%rbp), %rax
	movl	%edx, 60(%rax)
	.loc 1 43 23
	movq	-8(%rbp), %rax
	movl	60(%rax), %eax
	sall	$8, %eax
	movl	%eax, %edx
	movq	-8(%rbp), %rax
	movl	%edx, 60(%rax)
	.loc 1 44 31
	movq	-16(%rbp), %rax
	leaq	1(%rax), %rdx
	movq	%rdx, -16(%rbp)
	.loc 1 44 26
	movzbl	(%rax), %ecx
	.loc 1 44 23
	movq	-8(%rbp), %rax
	movl	60(%rax), %edx
	.loc 1 44 26
	movzbl	%cl, %eax
	.loc 1 44 23
	orl	%eax, %edx
	movq	-8(%rbp), %rax
	movl	%edx, 60(%rax)
	.loc 1 45 28
	movq	-16(%rbp), %rax
	leaq	1(%rax), %rdx
	movq	%rdx, -16(%rbp)
	.loc 1 45 23
	movzbl	(%rax), %eax
	movzbl	%al, %edx
	.loc 1 45 21
	movq	-8(%rbp), %rax
	movl	%edx, 64(%rax)
	.loc 1 46 21
	movq	-8(%rbp), %rax
	movl	64(%rax), %eax
	sall	$8, %eax
	movl	%eax, %edx
	movq	-8(%rbp), %rax
	movl	%edx, 64(%rax)
	.loc 1 47 29
	movq	-16(%rbp), %rax
	leaq	1(%rax), %rdx
	movq	%rdx, -16(%rbp)
	.loc 1 47 24
	movzbl	(%rax), %ecx
	.loc 1 47 21
	movq	-8(%rbp), %rax
	movl	64(%rax), %edx
	.loc 1 47 24
	movzbl	%cl, %eax
	.loc 1 47 21
	orl	%eax, %edx
	movq	-8(%rbp), %rax
	movl	%edx, 64(%rax)
	.loc 1 50 9
	addq	$1, -16(%rbp)
	.loc 1 51 9
	addq	$1, -16(%rbp)
	.loc 1 53 14
	movq	-8(%rbp), %rax
	movq	-16(%rbp), %rdx
	movq	%rdx, 72(%rax)
	.loc 1 54 1
	nop
	popq	%rbp
	.cfi_def_cfa 7, 8
	ret
	.cfi_endproc
.LFE1:
	.size	fd_set_font, .-fd_set_font
	.globl	fd_get_glyph_data
	.type	fd_get_glyph_data, @function
fd_get_glyph_data:
.LFB2:
	.loc 1 57 1
	.cfi_startproc
	endbr64
	pushq	%rbp
	.cfi_def_cfa_offset 16
	.cfi_offset 6, -16
	movq	%rsp, %rbp
	.cfi_def_cfa_register 6
	movq	%rdi, -24(%rbp)
	movl	%esi, %eax
	movb	%al, -28(%rbp)
	.loc 1 59 12
	movq	-24(%rbp), %rax
	movq	72(%rax), %rax
	movq	%rax, -8(%rbp)
	.loc 1 60 6
	cmpb	$96, -28(%rbp)
	jbe	.L4
	.loc 1 62 15
	movq	-24(%rbp), %rax
	movl	64(%rax), %eax
	movl	%eax, %eax
	.loc 1 62 10
	addq	%rax, -8(%rbp)
	jmp	.L10
.L4:
	.loc 1 64 11
	cmpb	$64, -28(%rbp)
	jbe	.L10
	.loc 1 66 15
	movq	-24(%rbp), %rax
	movl	60(%rax), %eax
	movl	%eax, %eax
	.loc 1 66 10
	addq	%rax, -8(%rbp)
.L10:
	.loc 1 71 14
	movq	-8(%rbp), %rax
	addq	$1, %rax
	movzbl	(%rax), %eax
	.loc 1 71 8
	testb	%al, %al
	je	.L12
	.loc 1 73 14
	movq	-8(%rbp), %rax
	movzbl	(%rax), %eax
	.loc 1 73 8
	cmpb	%al, -28(%rbp)
	jne	.L8
	.loc 1 75 14
	movq	-8(%rbp), %rax
	jmp	.L9
.L8:
	.loc 1 77 17
	movq	-8(%rbp), %rax
	addq	$1, %rax
	movzbl	(%rax), %eax
	movzbl	%al, %eax
	.loc 1 77 10
	addq	%rax, -8(%rbp)
	.loc 1 71 8
	jmp	.L10
.L12:
	.loc 1 72 7
	nop
	.loc 1 79 10
	movl	$0, %eax
.L9:
	.loc 1 80 1
	popq	%rbp
	.cfi_def_cfa 7, 8
	ret
	.cfi_endproc
.LFE2:
	.size	fd_get_glyph_data, .-fd_get_glyph_data
	.globl	fd_get_unsigned_bits
	.type	fd_get_unsigned_bits, @function
fd_get_unsigned_bits:
.LFB3:
	.loc 1 83 1
	.cfi_startproc
	endbr64
	pushq	%rbp
	.cfi_def_cfa_offset 16
	.cfi_offset 6, -16
	movq	%rsp, %rbp
	.cfi_def_cfa_register 6
	movq	%rdi, -24(%rbp)
	movl	%esi, -28(%rbp)
	.loc 1 85 12
	movq	-24(%rbp), %rax
	movl	40(%rax), %eax
	movl	%eax, -8(%rbp)
	.loc 1 88 7
	movq	-24(%rbp), %rax
	movl	44(%rax), %eax
	movl	%eax, -12(%rbp)
	.loc 1 89 12
	movl	$8, -4(%rbp)
	.loc 1 90 12
	movl	-8(%rbp), %eax
	subl	%eax, -4(%rbp)
	.loc 1 92 11
	movl	-28(%rbp), %eax
	addl	%eax, -8(%rbp)
	.loc 1 93 6
	movl	-28(%rbp), %eax
	cmpl	-4(%rbp), %eax
	jb	.L14
	.loc 1 95 6
	movq	-24(%rbp), %rax
	movq	32(%rax), %rax
	.loc 1 95 18
	leaq	1(%rax), %rdx
	movq	-24(%rbp), %rax
	movq	%rdx, 32(%rax)
	.loc 1 96 25
	movq	-24(%rbp), %rax
	movq	32(%rax), %rax
	.loc 1 96 22
	movzbl	(%rax), %eax
	movzbl	%al, %edx
	.loc 1 96 20
	movq	-24(%rbp), %rax
	movl	%edx, 44(%rax)
	.loc 1 98 13
	movq	-24(%rbp), %rax
	movl	44(%rax), %edx
	.loc 1 98 27
	movl	-4(%rbp), %eax
	movl	%eax, %ecx
	sall	%cl, %edx
	movl	%edx, %eax
	.loc 1 98 9
	orl	%eax, -12(%rbp)
	.loc 1 100 13
	subl	$8, -8(%rbp)
	.loc 1 101 20
	movq	-24(%rbp), %rax
	movl	44(%rax), %edx
	movl	-8(%rbp), %eax
	movl	%eax, %ecx
	shrl	%cl, %edx
	movq	-24(%rbp), %rax
	movl	%edx, 44(%rax)
	jmp	.L15
.L14:
	.loc 1 105 20
	movq	-24(%rbp), %rax
	movl	44(%rax), %edx
	movl	-28(%rbp), %eax
	movl	%eax, %ecx
	shrl	%cl, %edx
	movq	-24(%rbp), %rax
	movl	%edx, 44(%rax)
.L15:
	.loc 1 107 7
	movl	-28(%rbp), %eax
	movl	$-1, %edx
	movl	%eax, %ecx
	sall	%cl, %edx
	movl	%edx, %eax
	notl	%eax
	andl	%eax, -12(%rbp)
	.loc 1 108 21
	movq	-24(%rbp), %rax
	movl	-8(%rbp), %edx
	movl	%edx, 40(%rax)
	.loc 1 109 10
	movl	-12(%rbp), %eax
	.loc 1 110 1
	popq	%rbp
	.cfi_def_cfa 7, 8
	ret
	.cfi_endproc
.LFE3:
	.size	fd_get_unsigned_bits, .-fd_get_unsigned_bits
	.globl	fd_get_signed_bits
	.type	fd_get_signed_bits, @function
fd_get_signed_bits:
.LFB4:
	.loc 1 113 1
	.cfi_startproc
	endbr64
	pushq	%rbp
	.cfi_def_cfa_offset 16
	.cfi_offset 6, -16
	movq	%rsp, %rbp
	.cfi_def_cfa_register 6
	subq	$16, %rsp
	movq	%rdi, -8(%rbp)
	movl	%esi, -12(%rbp)
	.loc 1 114 15
	movl	-12(%rbp), %edx
	movq	-8(%rbp), %rax
	movl	%edx, %esi
	movq	%rax, %rdi
	call	fd_get_unsigned_bits
	.loc 1 114 10
	movl	%eax, %edx
	.loc 1 114 50
	movl	-12(%rbp), %eax
	movl	$1, %esi
	movl	%eax, %ecx
	sall	%cl, %esi
	movl	%esi, %eax
	.loc 1 114 56
	sarl	%eax
	.loc 1 114 45
	subl	%eax, %edx
	movl	%edx, %eax
	.loc 1 115 1
	leave
	.cfi_def_cfa 7, 8
	ret
	.cfi_endproc
.LFE4:
	.size	fd_get_signed_bits, .-fd_get_signed_bits
	.globl	fd_draw_pixel
	.type	fd_draw_pixel, @function
fd_draw_pixel:
.LFB5:
	.loc 1 121 1
	.cfi_startproc
	endbr64
	pushq	%rbp
	.cfi_def_cfa_offset 16
	.cfi_offset 6, -16
	movq	%rsp, %rbp
	.cfi_def_cfa_register 6
	subq	$16, %rsp
	movq	%rdi, -8(%rbp)
	movl	%esi, -12(%rbp)
	movl	%edx, -16(%rbp)
	.loc 1 122 9
	movq	-8(%rbp), %rax
	movl	8(%rax), %eax
	.loc 1 122 6
	testl	%eax, %eax
	je	.L20
	.loc 1 122 31 discriminator 1
	cmpl	$0, -16(%rbp)
	je	.L22
.L20:
	.loc 1 124 37
	movq	-8(%rbp), %rax
	movl	4(%rax), %edx
	.loc 1 124 49
	movq	-8(%rbp), %rax
	movl	16(%rax), %eax
	.loc 1 124 3
	leal	(%rdx,%rax), %esi
	.loc 1 124 19
	movq	-8(%rbp), %rax
	movl	(%rax), %edx
	.loc 1 124 31
	movq	-8(%rbp), %rax
	movl	12(%rax), %eax
	.loc 1 124 3
	leal	(%rdx,%rax), %edi
	movl	-16(%rbp), %edx
	movl	-12(%rbp), %eax
	movl	%edx, %ecx
	movl	%eax, %edx
	call	tga_draw_hline@PLT
	jmp	.L19
.L22:
	.loc 1 123 5
	nop
.L19:
	.loc 1 125 1
	leave
	.cfi_def_cfa 7, 8
	ret
	.cfi_endproc
.LFE5:
	.size	fd_draw_pixel, .-fd_draw_pixel
	.globl	fd_decode_len
	.type	fd_decode_len, @function
fd_decode_len:
.LFB6:
	.loc 1 128 1
	.cfi_startproc
	endbr64
	pushq	%rbp
	.cfi_def_cfa_offset 16
	.cfi_offset 6, -16
	movq	%rsp, %rbp
	.cfi_def_cfa_register 6
	subq	$32, %rsp
	movq	%rdi, -24(%rbp)
	movl	%esi, -28(%rbp)
	movl	%edx, -32(%rbp)
	.loc 1 130 7
	movl	-28(%rbp), %eax
	movl	%eax, -8(%rbp)
.L26:
	.loc 1 133 9
	movq	-24(%rbp), %rax
	movl	20(%rax), %eax
	movl	%eax, -4(%rbp)
	.loc 1 134 14
	movq	-24(%rbp), %rax
	movl	12(%rax), %eax
	.loc 1 134 9
	subl	%eax, -4(%rbp)
	.loc 1 135 8
	movl	-8(%rbp), %eax
	cmpl	-4(%rbp), %eax
	jb	.L28
	.loc 1 137 5
	movl	-32(%rbp), %edx
	movl	-4(%rbp), %ecx
	movq	-24(%rbp), %rax
	movl	%ecx, %esi
	movq	%rax, %rdi
	call	fd_draw_pixel
	.loc 1 138 9
	movl	-4(%rbp), %eax
	subl	%eax, -8(%rbp)
	.loc 1 139 11
	movq	-24(%rbp), %rax
	movl	$0, 12(%rax)
	.loc 1 140 7
	movq	-24(%rbp), %rax
	movl	16(%rax), %eax
	.loc 1 140 10
	leal	1(%rax), %edx
	movq	-24(%rbp), %rax
	movl	%edx, 16(%rax)
	.loc 1 133 9
	jmp	.L26
.L28:
	.loc 1 136 7
	nop
	.loc 1 142 3
	movl	-32(%rbp), %edx
	movl	-8(%rbp), %ecx
	movq	-24(%rbp), %rax
	movl	%ecx, %esi
	movq	%rax, %rdi
	call	fd_draw_pixel
	.loc 1 143 9
	movq	-24(%rbp), %rax
	movl	12(%rax), %edx
	movl	-8(%rbp), %eax
	addl	%eax, %edx
	movq	-24(%rbp), %rax
	movl	%edx, 12(%rax)
	.loc 1 144 1
	nop
	leave
	.cfi_def_cfa 7, 8
	ret
	.cfi_endproc
.LFE6:
	.size	fd_decode_len, .-fd_decode_len
	.globl	fd_decode
	.type	fd_decode, @function
fd_decode:
.LFB7:
	.loc 1 154 1
	.cfi_startproc
	endbr64
	pushq	%rbp
	.cfi_def_cfa_offset 16
	.cfi_offset 6, -16
	movq	%rsp, %rbp
	.cfi_def_cfa_register 6
	subq	$48, %rsp
	movq	%rdi, -40(%rbp)
	.loc 1 157 12
	movl	$0, -20(%rbp)
	.loc 1 159 21
	movq	-40(%rbp), %rax
	movl	$0, 40(%rax)
	.loc 1 161 17
	movq	-40(%rbp), %rax
	movq	32(%rax), %rax
	leaq	1(%rax), %rdx
	movq	-40(%rbp), %rax
	movq	%rdx, 32(%rax)
	.loc 1 162 17
	movq	-40(%rbp), %rax
	movq	32(%rax), %rax
	leaq	1(%rax), %rdx
	movq	-40(%rbp), %rax
	movq	%rdx, 32(%rax)
	.loc 1 164 23
	movq	-40(%rbp), %rax
	movq	32(%rax), %rax
	.loc 1 164 20
	movzbl	(%rax), %eax
	movzbl	%al, %edx
	.loc 1 164 18
	movq	-40(%rbp), %rax
	movl	%edx, 44(%rax)
	.loc 1 166 45
	movq	-40(%rbp), %rax
	movzbl	51(%rax), %eax
	.loc 1 166 20
	movzbl	%al, %edx
	movq	-40(%rbp), %rax
	movl	%edx, %esi
	movq	%rax, %rdi
	call	fd_get_unsigned_bits
	.loc 1 166 18
	movq	-40(%rbp), %rdx
	movl	%eax, 20(%rdx)
	.loc 1 167 46
	movq	-40(%rbp), %rax
	movzbl	52(%rax), %eax
	.loc 1 167 21
	movzbl	%al, %edx
	movq	-40(%rbp), %rax
	movl	%edx, %esi
	movq	%rax, %rdi
	call	fd_get_unsigned_bits
	.loc 1 167 19
	movq	-40(%rbp), %rdx
	movl	%eax, 24(%rdx)
	.loc 1 168 30
	movq	-40(%rbp), %rax
	movzbl	53(%rax), %eax
	.loc 1 168 7
	movzbl	%al, %edx
	movq	-40(%rbp), %rax
	movl	%edx, %esi
	movq	%rax, %rdi
	call	fd_get_signed_bits
	movl	%eax, -16(%rbp)
	.loc 1 169 30
	movq	-40(%rbp), %rax
	movzbl	54(%rax), %eax
	.loc 1 169 7
	movzbl	%al, %edx
	movq	-40(%rbp), %rax
	movl	%edx, %esi
	movq	%rax, %rdi
	call	fd_get_signed_bits
	movl	%eax, -12(%rbp)
	.loc 1 170 30
	movq	-40(%rbp), %rax
	movzbl	55(%rax), %eax
	.loc 1 170 7
	movzbl	%al, %edx
	movq	-40(%rbp), %rax
	movl	%edx, %esi
	movq	%rax, %rdi
	call	fd_get_signed_bits
	.loc 1 170 5
	movl	%eax, -20(%rbp)
	.loc 1 172 9
	movq	-40(%rbp), %rax
	movl	20(%rax), %eax
	.loc 1 172 6
	testl	%eax, %eax
	je	.L30
	.loc 1 175 17
	movq	-40(%rbp), %rax
	movl	(%rax), %edx
	movl	-16(%rbp), %eax
	addl	%eax, %edx
	movq	-40(%rbp), %rax
	movl	%edx, (%rax)
	.loc 1 176 17
	movq	-40(%rbp), %rax
	movl	4(%rax), %edx
	.loc 1 176 21
	movq	-40(%rbp), %rax
	movl	24(%rax), %eax
	.loc 1 176 17
	subl	%eax, %edx
	movq	-40(%rbp), %rax
	movl	%edx, 4(%rax)
	.loc 1 177 17
	movq	-40(%rbp), %rax
	movl	4(%rax), %edx
	movl	-12(%rbp), %eax
	subl	%eax, %edx
	movq	-40(%rbp), %rax
	movl	%edx, 4(%rax)
	.loc 1 179 10
	movq	-40(%rbp), %rax
	movl	$0, 12(%rax)
	.loc 1 180 10
	movq	-40(%rbp), %rax
	movl	$0, 16(%rax)
.L33:
	.loc 1 184 36
	movq	-40(%rbp), %rax
	movzbl	49(%rax), %eax
	.loc 1 184 11
	movzbl	%al, %edx
	movq	-40(%rbp), %rax
	movl	%edx, %esi
	movq	%rax, %rdi
	call	fd_get_unsigned_bits
	movl	%eax, -8(%rbp)
	.loc 1 185 36
	movq	-40(%rbp), %rax
	movzbl	50(%rax), %eax
	.loc 1 185 11
	movzbl	%al, %edx
	movq	-40(%rbp), %rax
	movl	%edx, %esi
	movq	%rax, %rdi
	call	fd_get_unsigned_bits
	movl	%eax, -4(%rbp)
.L31:
	.loc 1 188 2 discriminator 1
	movl	-8(%rbp), %ecx
	movq	-40(%rbp), %rax
	movl	$0, %edx
	movl	%ecx, %esi
	movq	%rax, %rdi
	call	fd_decode_len
	.loc 1 189 2 discriminator 1
	movl	-4(%rbp), %ecx
	movq	-40(%rbp), %rax
	movl	$1, %edx
	movl	%ecx, %esi
	movq	%rax, %rdi
	call	fd_decode_len
	.loc 1 190 16 discriminator 1
	movq	-40(%rbp), %rax
	movl	$1, %esi
	movq	%rax, %rdi
	call	fd_get_unsigned_bits
	.loc 1 190 7 discriminator 1
	testl	%eax, %eax
	jne	.L31
	.loc 1 192 13
	movq	-40(%rbp), %rax
	movl	16(%rax), %edx
	.loc 1 192 21
	movq	-40(%rbp), %rax
	movl	24(%rax), %eax
	.loc 1 192 10
	cmpl	%eax, %edx
	jnb	.L35
	.loc 1 184 9
	jmp	.L33
.L35:
	.loc 1 193 2
	nop
.L30:
	.loc 1 196 10
	movl	-20(%rbp), %eax
	.loc 1 197 1
	leave
	.cfi_def_cfa 7, 8
	ret
	.cfi_endproc
.LFE7:
	.size	fd_decode, .-fd_decode
	.globl	fd_draw_glyph
	.type	fd_draw_glyph, @function
fd_draw_glyph:
.LFB8:
	.loc 1 200 1
	.cfi_startproc
	endbr64
	pushq	%rbp
	.cfi_def_cfa_offset 16
	.cfi_offset 6, -16
	movq	%rsp, %rbp
	.cfi_def_cfa_register 6
	subq	$48, %rsp
	movq	%rdi, -24(%rbp)
	movl	%esi, -28(%rbp)
	movl	%edx, -32(%rbp)
	movl	%ecx, %eax
	movb	%al, -36(%rbp)
	.loc 1 201 12
	movl	$0, -4(%rbp)
	.loc 1 202 16
	movq	-24(%rbp), %rax
	movl	-28(%rbp), %edx
	movl	%edx, (%rax)
	.loc 1 203 16
	movq	-24(%rbp), %rax
	movl	-32(%rbp), %edx
	movl	%edx, 4(%rax)
	.loc 1 204 20
	movzbl	-36(%rbp), %edx
	movq	-24(%rbp), %rax
	movl	%edx, %esi
	movq	%rax, %rdi
	call	fd_get_glyph_data
	.loc 1 204 18
	movq	-24(%rbp), %rdx
	movq	%rax, 32(%rdx)
	.loc 1 205 10
	movq	-24(%rbp), %rax
	movq	32(%rax), %rax
	.loc 1 205 6
	testq	%rax, %rax
	je	.L37
	.loc 1 207 10
	movq	-24(%rbp), %rax
	movq	%rax, %rdi
	call	fd_decode
	movl	%eax, -4(%rbp)
.L37:
	.loc 1 209 10
	movl	-4(%rbp), %eax
	.loc 1 210 1
	leave
	.cfi_def_cfa 7, 8
	ret
	.cfi_endproc
.LFE8:
	.size	fd_draw_glyph, .-fd_draw_glyph
	.globl	fd_draw_string
	.type	fd_draw_string, @function
fd_draw_string:
.LFB9:
	.loc 1 213 1
	.cfi_startproc
	endbr64
	pushq	%rbp
	.cfi_def_cfa_offset 16
	.cfi_offset 6, -16
	movq	%rsp, %rbp
	.cfi_def_cfa_register 6
	subq	$48, %rsp
	movq	%rdi, -24(%rbp)
	movl	%esi, -28(%rbp)
	movl	%edx, -32(%rbp)
	movq	%rcx, -40(%rbp)
	.loc 1 214 12
	movl	$0, -4(%rbp)
	.loc 1 215 8
	jmp	.L40
.L41:
	.loc 1 217 36
	movq	-40(%rbp), %rax
	movzbl	(%rax), %eax
	.loc 1 217 11
	movzbl	%al, %ecx
	movl	-28(%rbp), %edx
	movl	-4(%rbp), %eax
	leal	(%rdx,%rax), %esi
	movl	-32(%rbp), %edx
	movq	-24(%rbp), %rax
	movq	%rax, %rdi
	call	fd_draw_glyph
	.loc 1 217 8
	addl	%eax, -4(%rbp)
	.loc 1 218 6
	addq	$1, -40(%rbp)
.L40:
	.loc 1 215 10
	movq	-40(%rbp), %rax
	movzbl	(%rax), %eax
	.loc 1 215 8
	testb	%al, %al
	jne	.L41
	.loc 1 220 10
	movl	-4(%rbp), %eax
	.loc 1 221 1
	leave
	.cfi_def_cfa 7, 8
	ret
	.cfi_endproc
.LFE9:
	.size	fd_draw_string, .-fd_draw_string
.Letext0:
	.file 2 "/usr/include/x86_64-linux-gnu/bits/types.h"
	.file 3 "/usr/include/x86_64-linux-gnu/bits/stdint-intn.h"
	.file 4 "/usr/include/x86_64-linux-gnu/bits/stdint-uintn.h"
	.file 5 "fd.h"
	.section	.note.GNU-stack,"",@progbits
	.section	.note.gnu.property,"a"
	.align 8
	.long	 1f - 0f
	.long	 4f - 1f
	.long	 5
0:
	.string	 "GNU"
1:
	.align 8
	.long	 0xc0000002
	.long	 3f - 2f
2:
	.long	 0x3
3:
	.align 8
4:
